Legend of loop templates (automatically generated)

<L063>  occurrences: 2  block_size:2  repeated_instances:2
sample block:
[800D  10 FB    BPL BPL #$FB                     A:00 X:FF Y:00 P:26 SP:FF ; 800A  AD 02 20 LDA LDA $2002                    A:00 X:FF Y:00 P:26 SP:FF ; 800D  10 FB    BPL BPL #$FB                     A:00 X:FF Y:00 P:26 SP:FF ; 800A  AD 02 20 LDA LDA $2002                    A:00 X:FF Y:00 P:26 SP:FF ; 800D  10 FB    BPL BPL #$FB                     A:00 X:FF Y:00 P:26 SP:FF ; 800A  AD 02 20 LDA LDA $2002                    A:00 X:FF Y:00 P:26 SP:FF ; 800D  10 FB    BPL BPL #$FB                     A:00 X:FF Y:00 P:26 SP:FF ; 800A  AD 02 20 LDA LDA $2002                    A:00 X:FF Y:00 P:26 SP:FF ; 800D  10 FB    BPL BPL #$FB                     A:00 X:FF Y:00 P:26 SP:FF ; 800A  AD 02 20 LDA LDA $2002                    A:00 X:FF Y:00 P:26 SP:FF] ×782
[800D  10 FB    BPL BPL #$FB                     A:00 X:FF Y:00 P:26 SP:FF ; 800A  AD 02 20 LDA LDA $2002                    A:00 X:FF Y:00 P:26 SP:FF] ×2

<L064>  occurrences: 2  block_size:5  repeated_instances:2
sample block:
8018  BD D7 07 LDA LDA $07D7,X                  A:80 X:05 Y:FE P:24 SP:FF
801B  C9 0A    CMP CMP #$0A                     A:00 X:05 Y:FE P:26 SP:FF
801D  B0 0C    BCS BCS #$0C                     A:00 X:05 Y:FE P:A4 SP:FF
801F  CA       DEX                              A:00 X:05 Y:FE P:A4 SP:FF
8020  10 F6    BPL BPL #$F6                     A:00 X:04 Y:FE P:24 SP:FF

<L001>  occurrences: 791  block_size:1  repeated_instances:2
sample block:
90CC  A2 07    LDX LDX #$07                     A:00 X:FF Y:FE P:24 SP:FD

<L035>  occurrences: 18  block_size:10  repeated_instances:6
sample block:
90D2  86 07    STX STX $07                      A:00 X:07 Y:FE P:26 SP:FD
[Repeated block (6 instrs)] ×255
90D4  E0 01    CPX CPX #$01                     A:00 X:07 Y:FE P:26 SP:FD
90D6  D0 04    BNE BNE #$04                     A:00 X:07 Y:FE P:25 SP:FD
90DC  91 06    STA STA ($06),Y                  A:00 X:07 Y:FE P:25 SP:FD
90DE  88       DEY                              A:00 X:07 Y:FE P:25 SP:FD
90DF  C0 FF    CPY CPY #$FF                     A:00 X:07 Y:FD P:A5 SP:FD
90E1  D0 F1    BNE BNE #$F1                     A:00 X:07 Y:FD P:A4 SP:FD
90E3  CA       DEX                              A:00 X:07 Y:FF P:27 SP:FD
90E4  10 EC    BPL BPL #$EC                     A:00 X:06 Y:FF P:25 SP:FD

<L001>  occurrences: 791  block_size:1  repeated_instances:3
sample block:
90DA  B0 02    BCS BCS #$02                     A:00 X:01 Y:FF P:A5 SP:FD

<L002>  occurrences: 396  block_size:2  repeated_instances:2
sample block:
90DA  B0 02    BCS BCS #$02                     A:00 X:01 Y:5F P:A4 SP:FD
90DC  91 06    STA STA ($06),Y                  A:00 X:01 Y:5F P:A4 SP:FD

<L001>  occurrences: 791  block_size:1  repeated_instances:3
sample block:
90DC  91 06    STA STA ($06),Y                  A:00 X:00 Y:FF P:A4 SP:FD

<L065>  occurrences: 2  block_size:3  repeated_instances:2
sample block:
802E  8D 11 40 STA STA $4011                    A:00 X:FF Y:FF P:A5 SP:FF
8031  8D 70 07 STA STA $0770                    A:00 X:FF Y:FF P:A5 SP:FF
8034  A9 A5    LDA LDA #$A5                     A:00 X:FF Y:FF P:A5 SP:FF

<L048>  occurrences: 8  block_size:2  repeated_instances:2
sample block:
822A  C8       INY                              A:F8 X:FF Y:00 P:A5 SP:FD
822B  C8       INY                              A:F8 X:FF Y:01 P:25 SP:FD

<L052>  occurrences: 6  block_size:1  repeated_instances:2
sample block:
8E19  AD 02 20 LDA LDA $2002                    A:F8 X:FF Y:00 P:27 SP:FD

<L001>  occurrences: 791  block_size:1  repeated_instances:3
sample block:
8EED  8D 00 20 STA STA $2000                    A:10 X:FF Y:00 P:25 SP:FB

<L040>  occurrences: 12  block_size:3  repeated_instances:3
sample block:
8E3B  8D 07 20 STA STA $2007                    A:24 X:04 Y:C0 P:25 SP:FB
8E3E  88       DEY                              A:24 X:04 Y:C0 P:25 SP:FB
8E3F  D0 FA    BNE BNE #$FA                     A:24 X:04 Y:BF P:A5 SP:FB

<L025>  occurrences: 32  block_size:6  repeated_instances:2
sample block:
8E3B  8D 07 20 STA STA $2007                    A:24 X:03 Y:00 P:25 SP:FB
8E3E  88       DEY                              A:24 X:03 Y:00 P:25 SP:FB
8E3F  D0 FA    BNE BNE #$FA                     A:24 X:03 Y:FF P:A5 SP:FB
8E3B  8D 07 20 STA STA $2007                    A:24 X:03 Y:FF P:A5 SP:FB
8E3E  88       DEY                              A:24 X:03 Y:FF P:A5 SP:FB
8E3F  D0 FA    BNE BNE #$FA                     A:24 X:03 Y:FE P:A5 SP:FB

<L025>  occurrences: 32  block_size:6  repeated_instances:2
sample block:
8E3B  8D 07 20 STA STA $2007                    A:24 X:02 Y:00 P:25 SP:FB
8E3E  88       DEY                              A:24 X:02 Y:00 P:25 SP:FB
8E3F  D0 FA    BNE BNE #$FA                     A:24 X:02 Y:FF P:A5 SP:FB
8E3B  8D 07 20 STA STA $2007                    A:24 X:02 Y:FF P:A5 SP:FB
8E3E  88       DEY                              A:24 X:02 Y:FF P:A5 SP:FB
8E3F  D0 FA    BNE BNE #$FA                     A:24 X:02 Y:FE P:A5 SP:FB

<L025>  occurrences: 32  block_size:6  repeated_instances:2
sample block:
8E3B  8D 07 20 STA STA $2007                    A:24 X:01 Y:00 P:25 SP:FB
8E3E  88       DEY                              A:24 X:01 Y:00 P:25 SP:FB
8E3F  D0 FA    BNE BNE #$FA                     A:24 X:01 Y:FF P:A5 SP:FB
8E3B  8D 07 20 STA STA $2007                    A:24 X:01 Y:FF P:A5 SP:FB
8E3E  88       DEY                              A:24 X:01 Y:FF P:A5 SP:FB
8E3F  D0 FA    BNE BNE #$FA                     A:24 X:01 Y:FE P:A5 SP:FB

<L027>  occurrences: 27  block_size:1  repeated_instances:2
sample block:
8E47  8D 00 03 STA STA $0300                    A:00 X:00 Y:40 P:27 SP:FB

<L025>  occurrences: 32  block_size:6  repeated_instances:2
sample block:
8E4D  8D 07 20 STA STA $2007                    A:00 X:00 Y:40 P:27 SP:FB
8E50  88       DEY                              A:00 X:00 Y:40 P:27 SP:FB
8E51  D0 FA    BNE BNE #$FA                     A:00 X:00 Y:3F P:25 SP:FB
8E4D  8D 07 20 STA STA $2007                    A:00 X:00 Y:3F P:25 SP:FB
8E50  88       DEY                              A:00 X:00 Y:3F P:25 SP:FB
8E51  D0 FA    BNE BNE #$FA                     A:00 X:00 Y:3E P:25 SP:FB

<L027>  occurrences: 27  block_size:1  repeated_instances:2
sample block:
8E53  8D 3F 07 STA STA $073F                    A:00 X:00 Y:00 P:27 SP:FB

<L001>  occurrences: 791  block_size:1  repeated_instances:3
sample block:
8EE6  8D 05 20 STA STA $2005                    A:00 X:00 Y:00 P:27 SP:FB

<L046>  occurrences: 9  block_size:2  repeated_instances:2
sample block:
8E2B  A9 20    LDA LDA #$20                     A:00 X:00 Y:00 P:27 SP:FD
8E2D  8D 06 20 STA STA $2006                    A:20 X:00 Y:00 P:25 SP:FD

<L040>  occurrences: 12  block_size:3  repeated_instances:3
sample block:
8E3B  8D 07 20 STA STA $2007                    A:24 X:04 Y:C0 P:25 SP:FD
8E3E  88       DEY                              A:24 X:04 Y:C0 P:25 SP:FD
8E3F  D0 FA    BNE BNE #$FA                     A:24 X:04 Y:BF P:A5 SP:FD

<L025>  occurrences: 32  block_size:6  repeated_instances:2
sample block:
8E3B  8D 07 20 STA STA $2007                    A:24 X:03 Y:00 P:25 SP:FD
8E3E  88       DEY                              A:24 X:03 Y:00 P:25 SP:FD
8E3F  D0 FA    BNE BNE #$FA                     A:24 X:03 Y:FF P:A5 SP:FD
8E3B  8D 07 20 STA STA $2007                    A:24 X:03 Y:FF P:A5 SP:FD
8E3E  88       DEY                              A:24 X:03 Y:FF P:A5 SP:FD
8E3F  D0 FA    BNE BNE #$FA                     A:24 X:03 Y:FE P:A5 SP:FD

<L025>  occurrences: 32  block_size:6  repeated_instances:2
sample block:
8E3B  8D 07 20 STA STA $2007                    A:24 X:02 Y:00 P:25 SP:FD
8E3E  88       DEY                              A:24 X:02 Y:00 P:25 SP:FD
8E3F  D0 FA    BNE BNE #$FA                     A:24 X:02 Y:FF P:A5 SP:FD
8E3B  8D 07 20 STA STA $2007                    A:24 X:02 Y:FF P:A5 SP:FD
8E3E  88       DEY                              A:24 X:02 Y:FF P:A5 SP:FD
8E3F  D0 FA    BNE BNE #$FA                     A:24 X:02 Y:FE P:A5 SP:FD

<L025>  occurrences: 32  block_size:6  repeated_instances:2
sample block:
8E3B  8D 07 20 STA STA $2007                    A:24 X:01 Y:00 P:25 SP:FD
8E3E  88       DEY                              A:24 X:01 Y:00 P:25 SP:FD
8E3F  D0 FA    BNE BNE #$FA                     A:24 X:01 Y:FF P:A5 SP:FD
8E3B  8D 07 20 STA STA $2007                    A:24 X:01 Y:FF P:A5 SP:FD
8E3E  88       DEY                              A:24 X:01 Y:FF P:A5 SP:FD
8E3F  D0 FA    BNE BNE #$FA                     A:24 X:01 Y:FE P:A5 SP:FD

<L027>  occurrences: 27  block_size:1  repeated_instances:2
sample block:
8E47  8D 00 03 STA STA $0300                    A:00 X:00 Y:40 P:27 SP:FD

<L025>  occurrences: 32  block_size:6  repeated_instances:2
sample block:
8E4D  8D 07 20 STA STA $2007                    A:00 X:00 Y:40 P:27 SP:FD
8E50  88       DEY                              A:00 X:00 Y:40 P:27 SP:FD
8E51  D0 FA    BNE BNE #$FA                     A:00 X:00 Y:3F P:25 SP:FD
8E4D  8D 07 20 STA STA $2007                    A:00 X:00 Y:3F P:25 SP:FD
8E50  88       DEY                              A:00 X:00 Y:3F P:25 SP:FD
8E51  D0 FA    BNE BNE #$FA                     A:00 X:00 Y:3E P:25 SP:FD

<L027>  occurrences: 27  block_size:1  repeated_instances:2
sample block:
8E53  8D 3F 07 STA STA $073F                    A:00 X:00 Y:00 P:27 SP:FD

<L001>  occurrences: 791  block_size:1  repeated_instances:3
sample block:
8EE6  8D 05 20 STA STA $2005                    A:00 X:00 Y:00 P:27 SP:FD

<L001>  occurrences: 791  block_size:1  repeated_instances:3
sample block:
8EED  8D 00 20 STA STA $2000                    A:90 X:00 Y:00 P:A5 SP:FD

<L002>  occurrences: 396  block_size:2  repeated_instances:2
sample block:
FFF0  19 19 1A ORA ORA $1A19,Y                  A:90 X:00 Y:01 P:A5 SP:FC
FFF3  1A       *NOP                             A:90 X:00 Y:01 P:A5 SP:FC

<L011>  occurrences: 64  block_size:2  repeated_instances:2
sample block:
8085  29 7F    AND AND #$7F                     A:90 X:00 Y:01 P:A4 SP:B5
8087  8D 78 07 STA STA $0778                    A:10 X:00 Y:01 P:24 SP:B5

<L011>  occurrences: 64  block_size:2  repeated_instances:2
sample block:
8097  D0 05    BNE BNE #$05                     A:00 X:00 Y:01 P:24 SP:B5
809E  8D 79 07 STA STA $0779                    A:00 X:00 Y:01 P:24 SP:B5

<L002>  occurrences: 396  block_size:2  repeated_instances:2
sample block:
80AB  20 E6 8E JSR JSR $8EE6                    A:00 X:80 Y:01 P:26 SP:B5
8EE6  8D 05 20 STA STA $2005                    A:00 X:80 Y:01 P:26 SP:B3

<L001>  occurrences: 791  block_size:1  repeated_instances:2
sample block:
80BC  85 00    STA STA $00                      A:01 X:00 Y:01 P:24 SP:B5

<L005>  occurrences: 138  block_size:3  repeated_instances:2
sample block:
8EDD  AE 02 20 LDX LDX $2002                    A:03 X:00 Y:01 P:24 SP:B3
8EE0  A0 00    LDY LDY #$00                     A:03 X:00 Y:01 P:26 SP:B3
8EE2  B1 00    LDA LDA ($00),Y                  A:03 X:00 Y:00 P:26 SP:B3

<L001>  occurrences: 791  block_size:1  repeated_instances:2
sample block:
80CB  E0 06    CPX CPX #$06                     A:00 X:00 Y:00 P:26 SP:B5

<L022>  occurrences: 34  block_size:1  repeated_instances:2
sample block:
80D5  9D 00 03 STA STA $0300,X                  A:00 X:00 Y:00 P:26 SP:B5

<L001>  occurrences: 791  block_size:1  repeated_instances:2
sample block:
80DB  8D 73 07 STA STA $0773                    A:00 X:00 Y:00 P:26 SP:B5

<L010>  occurrences: 80  block_size:6  repeated_instances:2
sample block:
8FA1  BD DD 07 LDA LDA $07DD,X                  A:00 X:05 Y:05 P:25 SP:B1
8FA4  F9 D7 07 SBC SBC $07D7,Y                  A:00 X:05 Y:05 P:27 SP:B1
8FA7  CA       DEX                              A:00 X:05 Y:05 P:27 SP:B1
8FA8  88       DEY                              A:00 X:04 Y:05 P:25 SP:B1
8FA9  10 F6    BPL BPL #$F6                     A:00 X:04 Y:04 P:25 SP:B1
8FA1  BD DD 07 LDA LDA $07DD,X                  A:00 X:04 Y:04 P:25 SP:B1

<L005>  occurrences: 138  block_size:3  repeated_instances:2
sample block:
8FAF  BD DD 07 LDA LDA $07DD,X                  A:00 X:00 Y:00 P:27 SP:B1
8FB2  99 D7 07 STA STA $07D7,Y                  A:00 X:00 Y:00 P:27 SP:B1
8FB5  E8       INX                              A:00 X:00 Y:00 P:27 SP:B1

<L010>  occurrences: 80  block_size:6  repeated_instances:2
sample block:
8FA1  BD DD 07 LDA LDA $07DD,X                  A:00 X:0B Y:05 P:25 SP:B3
8FA4  F9 D7 07 SBC SBC $07D7,Y                  A:00 X:0B Y:05 P:27 SP:B3
8FA7  CA       DEX                              A:00 X:0B Y:05 P:27 SP:B3
8FA8  88       DEY                              A:00 X:0A Y:05 P:25 SP:B3
8FA9  10 F6    BPL BPL #$F6                     A:00 X:0A Y:04 P:25 SP:B3
8FA1  BD DD 07 LDA LDA $07DD,X                  A:00 X:0A Y:04 P:25 SP:B3

<L005>  occurrences: 138  block_size:3  repeated_instances:2
sample block:
8FAF  BD DD 07 LDA LDA $07DD,X                  A:00 X:06 Y:00 P:27 SP:B3
8FB2  99 D7 07 STA STA $07D7,Y                  A:00 X:06 Y:00 P:27 SP:B3
8FB5  E8       INX                              A:00 X:06 Y:00 P:27 SP:B3

<L016>  occurrences: 50  block_size:4  repeated_instances:2
sample block:
810E  BD 80 07 LDA LDA $0780,X                  A:14 X:23 Y:06 P:24 SP:B5
8111  F0 03    BEQ BEQ #$03                     A:00 X:23 Y:06 P:26 SP:B5
8116  CA       DEX                              A:00 X:23 Y:06 P:26 SP:B5
8117  10 F5    BPL BPL #$F5                     A:00 X:22 Y:06 P:24 SP:B5

<L015>  occurrences: 51  block_size:4  repeated_instances:3
sample block:
8131  7E A7 07 ROR ROR $07A7,X                  A:00 X:00 Y:07 P:26 SP:B5
8134  E8       INX                              A:00 X:00 Y:07 P:25 SP:B5
8135  88       DEY                              A:00 X:01 Y:07 P:25 SP:B5
8136  D0 F9    BNE BNE #$F9                     A:00 X:01 Y:06 P:25 SP:B5

<L023>  occurrences: 34  block_size:2  repeated_instances:2
sample block:
815C  AD 3F 07 LDA LDA $073F                    A:00 X:07 Y:00 P:26 SP:B5
815F  8D 05 20 STA STA $2005                    A:00 X:07 Y:00 P:26 SP:B5

<L006>  occurrences: 114  block_size:2  repeated_instances:2
sample block:
8E06  68       PLA                              A:00 X:07 Y:00 P:26 SP:B0
8E07  85 04    STA STA $04                      A:17 X:07 Y:00 P:24 SP:B1

<L007>  occurrences: 114  block_size:3  repeated_instances:2
sample block:
8E0C  C8       INY                              A:82 X:07 Y:00 P:A4 SP:B2
8E0D  B1 04    LDA LDA ($04),Y                  A:82 X:07 Y:01 P:24 SP:B2
8E0F  85 06    STA STA $06                      A:31 X:07 Y:01 P:24 SP:B2

<L006>  occurrences: 114  block_size:2  repeated_instances:2
sample block:
8E06  68       PLA                              A:00 X:07 Y:00 P:26 SP:B0
8E07  85 04    STA STA $04                      A:36 X:07 Y:00 P:24 SP:B1

<L007>  occurrences: 114  block_size:3  repeated_instances:2
sample block:
8E0C  C8       INY                              A:82 X:07 Y:00 P:A4 SP:B2
8E0D  B1 04    LDA LDA ($04),Y                  A:82 X:07 Y:01 P:24 SP:B2
8E0F  85 06    STA STA $06                      A:CF X:07 Y:01 P:A4 SP:B2

<L002>  occurrences: 396  block_size:2  repeated_instances:2
sample block:
8FCF  A0 6F    LDY LDY #$6F                     A:8F X:07 Y:02 P:A4 SP:B2
8FD1  20 CC 90 JSR JSR $90CC                    A:8F X:07 Y:6F P:24 SP:B2

<L035>  occurrences: 18  block_size:10  repeated_instances:6
sample block:
90D2  86 07    STX STX $07                      A:00 X:07 Y:6F P:26 SP:B0
[Repeated block (6 instrs)] ×112
90D4  E0 01    CPX CPX #$01                     A:00 X:07 Y:6F P:26 SP:B0
90D6  D0 04    BNE BNE #$04                     A:00 X:07 Y:6F P:25 SP:B0
90DC  91 06    STA STA ($06),Y                  A:00 X:07 Y:6F P:25 SP:B0
90DE  88       DEY                              A:00 X:07 Y:6F P:25 SP:B0
90DF  C0 FF    CPY CPY #$FF                     A:00 X:07 Y:6E P:25 SP:B0
90E1  D0 F1    BNE BNE #$F1                     A:00 X:07 Y:6E P:24 SP:B0
90E3  CA       DEX                              A:00 X:07 Y:FF P:27 SP:B0
90E4  10 EC    BPL BPL #$EC                     A:00 X:06 Y:FF P:25 SP:B0

<L001>  occurrences: 791  block_size:1  repeated_instances:3
sample block:
90DA  B0 02    BCS BCS #$02                     A:00 X:01 Y:FF P:A5 SP:B0

<L002>  occurrences: 396  block_size:2  repeated_instances:2
sample block:
90DA  B0 02    BCS BCS #$02                     A:00 X:01 Y:5F P:A4 SP:B0
90DC  91 06    STA STA ($06),Y                  A:00 X:01 Y:5F P:A4 SP:B0

<L001>  occurrences: 791  block_size:1  repeated_instances:3
sample block:
90DC  91 06    STA STA ($06),Y                  A:00 X:00 Y:FF P:A4 SP:B0

<L018>  occurrences: 46  block_size:4  repeated_instances:2
sample block:
8FD6  99 B0 07 STA STA $07B0,Y                  A:00 X:FF Y:1F P:25 SP:B2
8FD9  88       DEY                              A:00 X:FF Y:1F P:25 SP:B2
8FDA  10 FA    BPL BPL #$FA                     A:00 X:FF Y:1E P:25 SP:B2
8FD6  99 B0 07 STA STA $07B0,Y                  A:00 X:FF Y:1E P:25 SP:B2

<L005>  occurrences: 138  block_size:3  repeated_instances:2
sample block:
8FD6  99 B0 07 STA STA $07B0,Y                  A:00 X:FF Y:01 P:25 SP:B2
8FD9  88       DEY                              A:00 X:FF Y:01 P:25 SP:B2
8FDA  10 FA    BPL BPL #$FA                     A:00 X:FF Y:00 P:27 SP:B2

<L012>  occurrences: 64  block_size:1  repeated_instances:3
sample block:
9C0C  2A       ROL A                            A:40 X:FF Y:00 P:24 SP:B0

<L002>  occurrences: 396  block_size:2  repeated_instances:2
sample block:
8FE4  A0 4B    LDY LDY #$4B                     A:01 X:FF Y:00 P:24 SP:B2
8FE6  20 CC 90 JSR JSR $90CC                    A:01 X:FF Y:4B P:24 SP:B2

<L035>  occurrences: 18  block_size:10  repeated_instances:6
sample block:
90D2  86 07    STX STX $07                      A:00 X:07 Y:4B P:26 SP:B0
[Repeated block (6 instrs)] ×76
90D4  E0 01    CPX CPX #$01                     A:00 X:07 Y:4B P:26 SP:B0
90D6  D0 04    BNE BNE #$04                     A:00 X:07 Y:4B P:25 SP:B0
90DC  91 06    STA STA ($06),Y                  A:00 X:07 Y:4B P:25 SP:B0
90DE  88       DEY                              A:00 X:07 Y:4B P:25 SP:B0
90DF  C0 FF    CPY CPY #$FF                     A:00 X:07 Y:4A P:25 SP:B0
90E1  D0 F1    BNE BNE #$F1                     A:00 X:07 Y:4A P:24 SP:B0
90E3  CA       DEX                              A:00 X:07 Y:FF P:27 SP:B0
90E4  10 EC    BPL BPL #$EC                     A:00 X:06 Y:FF P:25 SP:B0

<L001>  occurrences: 791  block_size:1  repeated_instances:3
sample block:
90DA  B0 02    BCS BCS #$02                     A:00 X:01 Y:FF P:A5 SP:B0

<L002>  occurrences: 396  block_size:2  repeated_instances:2
sample block:
90DA  B0 02    BCS BCS #$02                     A:00 X:01 Y:5F P:A4 SP:B0
90DC  91 06    STA STA ($06),Y                  A:00 X:01 Y:5F P:A4 SP:B0

<L001>  occurrences: 791  block_size:1  repeated_instances:3
sample block:
90DC  91 06    STA STA ($06),Y                  A:00 X:00 Y:FF P:A4 SP:B0

<L001>  occurrences: 791  block_size:1  repeated_instances:2
sample block:
8FE9  A2 21    LDX LDX #$21                     A:00 X:FF Y:FF P:A5 SP:B2

<L031>  occurrences: 22  block_size:8  repeated_instances:2
sample block:
8FED  9D 80 07 STA STA $0780,X                  A:00 X:21 Y:FF P:27 SP:B2
8FF0  CA       DEX                              A:00 X:21 Y:FF P:27 SP:B2
8FF1  10 FA    BPL BPL #$FA                     A:00 X:20 Y:FF P:25 SP:B2
8FED  9D 80 07 STA STA $0780,X                  A:00 X:20 Y:FF P:25 SP:B2
8FF0  CA       DEX                              A:00 X:20 Y:FF P:25 SP:B2
8FF1  10 FA    BPL BPL #$FA                     A:00 X:1F Y:FF P:25 SP:B2
8FED  9D 80 07 STA STA $0780,X                  A:00 X:1F Y:FF P:25 SP:B2
8FF0  CA       DEX                              A:00 X:1F Y:FF P:25 SP:B2

<L027>  occurrences: 27  block_size:1  repeated_instances:2
sample block:
9001  8D 25 07 STA STA $0725                    A:00 X:FF Y:00 P:27 SP:B2

<L041>  occurrences: 12  block_size:1  repeated_instances:2
sample block:
901A  0A       ASL A                            A:00 X:FF Y:80 P:A4 SP:B2

<L061>  occurrences: 3  block_size:1  repeated_instances:3
sample block:
9021  CE 30 07 DEC DEC $0730                    A:00 X:FF Y:80 P:26 SP:B2

<L012>  occurrences: 64  block_size:1  repeated_instances:3
sample block:
9C0C  2A       ROL A                            A:40 X:FF Y:80 P:24 SP:AE

<L066>  occurrences: 2  block_size:2  repeated_instances:2
sample block:
9C4E  B9 2C 9D LDA LDA $9D2C,Y                  A:08 X:FF Y:08 P:24 SP:B0
9C51  85 E7    STA STA $E7                      A:8E X:FF Y:08 P:A4 SP:B0

<L024>  occurrences: 34  block_size:1  repeated_instances:3
sample block:
9C6F  4A       LSR A                            A:10 X:FF Y:00 P:24 SP:AF

<L012>  occurrences: 64  block_size:1  repeated_instances:3
sample block:
9C79  2A       ROL A                            A:40 X:FF Y:00 P:24 SP:B0

<L024>  occurrences: 34  block_size:1  repeated_instances:2
sample block:
9C8C  4A       LSR A                            A:20 X:FF Y:01 P:24 SP:AF

<L012>  occurrences: 64  block_size:1  repeated_instances:3
sample block:
9C97  2A       ROL A                            A:00 X:FF Y:01 P:26 SP:B0

<L018>  occurrences: 46  block_size:4  repeated_instances:2
sample block:
9CA3  8D 33 07 STA STA $0733                    A:00 X:FF Y:01 P:A4 SP:B0
9CA6  A5 E7    LDA LDA $E7                      A:00 X:FF Y:01 P:A4 SP:B0
9CA8  18       CLC                              A:8E X:FF Y:01 P:A4 SP:B0
9CA9  69 02    ADC ADC #$02                     A:8E X:FF Y:01 P:A4 SP:B0

<L026>  occurrences: 30  block_size:5  repeated_instances:2
sample block:
FFFC  00       BRK                              A:90 X:FF Y:01 P:26 SP:B8
FFF0  19 19 1A ORA ORA $1A19,Y                  A:90 X:FF Y:01 P:26 SP:B5
FFF3  1A       *NOP                             A:90 X:FF Y:01 P:A4 SP:B5
FFF4  1C 1D 1D *NOP *NOP $1D1D,X                A:90 X:FF Y:01 P:A4 SP:B5
FFF7  1E 1E 1F ASL ASL $1F1E,X                  A:90 X:FF Y:01 P:A4 SP:B5

<L011>  occurrences: 64  block_size:2  repeated_instances:2
sample block:
8085  29 7F    AND AND #$7F                     A:10 X:FF Y:01 P:24 SP:81
8087  8D 78 07 STA STA $0778                    A:10 X:FF Y:01 P:24 SP:81

<L011>  occurrences: 64  block_size:2  repeated_instances:2
sample block:
8097  D0 05    BNE BNE #$05                     A:00 X:FF Y:01 P:24 SP:81
809E  8D 79 07 STA STA $0779                    A:00 X:FF Y:01 P:24 SP:81

<L002>  occurrences: 396  block_size:2  repeated_instances:2
sample block:
80AB  20 E6 8E JSR JSR $8EE6                    A:00 X:80 Y:01 P:26 SP:81
8EE6  8D 05 20 STA STA $2005                    A:00 X:80 Y:01 P:26 SP:7F

<L001>  occurrences: 791  block_size:1  repeated_instances:2
sample block:
80BC  85 00    STA STA $00                      A:01 X:00 Y:01 P:24 SP:81

<L005>  occurrences: 138  block_size:3  repeated_instances:2
sample block:
8EDD  AE 02 20 LDX LDX $2002                    A:03 X:00 Y:01 P:24 SP:7F
8EE0  A0 00    LDY LDY #$00                     A:03 X:00 Y:01 P:26 SP:7F
8EE2  B1 00    LDA LDA ($00),Y                  A:03 X:00 Y:00 P:26 SP:7F

<L001>  occurrences: 791  block_size:1  repeated_instances:2
sample block:
80CB  E0 06    CPX CPX #$06                     A:00 X:00 Y:00 P:26 SP:81

<L022>  occurrences: 34  block_size:1  repeated_instances:2
sample block:
80D5  9D 00 03 STA STA $0300,X                  A:00 X:00 Y:00 P:26 SP:81

<L001>  occurrences: 791  block_size:1  repeated_instances:2
sample block:
80DB  8D 73 07 STA STA $0773                    A:00 X:00 Y:00 P:26 SP:81

<L010>  occurrences: 80  block_size:6  repeated_instances:2
sample block:
8FA1  BD DD 07 LDA LDA $07DD,X                  A:00 X:05 Y:05 P:25 SP:7D
8FA4  F9 D7 07 SBC SBC $07D7,Y                  A:00 X:05 Y:05 P:27 SP:7D
8FA7  CA       DEX                              A:00 X:05 Y:05 P:27 SP:7D
8FA8  88       DEY                              A:00 X:04 Y:05 P:25 SP:7D
8FA9  10 F6    BPL BPL #$F6                     A:00 X:04 Y:04 P:25 SP:7D
8FA1  BD DD 07 LDA LDA $07DD,X                  A:00 X:04 Y:04 P:25 SP:7D

<L005>  occurrences: 138  block_size:3  repeated_instances:2
sample block:
8FAF  BD DD 07 LDA LDA $07DD,X                  A:00 X:00 Y:00 P:27 SP:7D
8FB2  99 D7 07 STA STA $07D7,Y                  A:00 X:00 Y:00 P:27 SP:7D
8FB5  E8       INX                              A:00 X:00 Y:00 P:27 SP:7D

<L010>  occurrences: 80  block_size:6  repeated_instances:2
sample block:
8FA1  BD DD 07 LDA LDA $07DD,X                  A:00 X:0B Y:05 P:25 SP:7F
8FA4  F9 D7 07 SBC SBC $07D7,Y                  A:00 X:0B Y:05 P:27 SP:7F
8FA7  CA       DEX                              A:00 X:0B Y:05 P:27 SP:7F
8FA8  88       DEY                              A:00 X:0A Y:05 P:25 SP:7F
8FA9  10 F6    BPL BPL #$F6                     A:00 X:0A Y:04 P:25 SP:7F
8FA1  BD DD 07 LDA LDA $07DD,X                  A:00 X:0A Y:04 P:25 SP:7F

<L005>  occurrences: 138  block_size:3  repeated_instances:2
sample block:
8FAF  BD DD 07 LDA LDA $07DD,X                  A:00 X:06 Y:00 P:27 SP:7F
8FB2  99 D7 07 STA STA $07D7,Y                  A:00 X:06 Y:00 P:27 SP:7F
8FB5  E8       INX                              A:00 X:06 Y:00 P:27 SP:7F

<L016>  occurrences: 50  block_size:4  repeated_instances:3
sample block:
810E  BD 80 07 LDA LDA $0780,X                  A:00 X:14 Y:06 P:24 SP:81
8111  F0 03    BEQ BEQ #$03                     A:00 X:14 Y:06 P:26 SP:81
8116  CA       DEX                              A:00 X:14 Y:06 P:26 SP:81
8117  10 F5    BPL BPL #$F5                     A:00 X:13 Y:06 P:24 SP:81

<L015>  occurrences: 51  block_size:4  repeated_instances:3
sample block:
8131  7E A7 07 ROR ROR $07A7,X                  A:02 X:00 Y:07 P:25 SP:81
8134  E8       INX                              A:02 X:00 Y:07 P:A4 SP:81
8135  88       DEY                              A:02 X:01 Y:07 P:24 SP:81
8136  D0 F9    BNE BNE #$F9                     A:02 X:01 Y:06 P:24 SP:81

<L023>  occurrences: 34  block_size:2  repeated_instances:2
sample block:
815C  AD 3F 07 LDA LDA $073F                    A:00 X:07 Y:00 P:26 SP:81
815F  8D 05 20 STA STA $2005                    A:00 X:07 Y:00 P:26 SP:81

<L006>  occurrences: 114  block_size:2  repeated_instances:2
sample block:
8E06  68       PLA                              A:00 X:07 Y:00 P:26 SP:7C
8E07  85 04    STA STA $04                      A:17 X:07 Y:00 P:24 SP:7D

<L007>  occurrences: 114  block_size:3  repeated_instances:2
sample block:
8E0C  C8       INY                              A:82 X:07 Y:00 P:A4 SP:7E
8E0D  B1 04    LDA LDA ($04),Y                  A:82 X:07 Y:01 P:24 SP:7E
8E0F  85 06    STA STA $06                      A:31 X:07 Y:01 P:24 SP:7E

<L006>  occurrences: 114  block_size:2  repeated_instances:2
sample block:
8E06  68       PLA                              A:02 X:07 Y:02 P:24 SP:7C
8E07  85 04    STA STA $04                      A:36 X:07 Y:02 P:24 SP:7D

<L007>  occurrences: 114  block_size:3  repeated_instances:2
sample block:
8E0C  C8       INY                              A:82 X:07 Y:02 P:A4 SP:7E
8E0D  B1 04    LDA LDA ($04),Y                  A:82 X:07 Y:03 P:24 SP:7E
8E0F  85 06    STA STA $06                      A:67 X:07 Y:03 P:24 SP:7E

<L006>  occurrences: 114  block_size:2  repeated_instances:2
sample block:
8E06  68       PLA                              A:00 X:07 Y:00 P:26 SP:7C
8E07  85 04    STA STA $04                      A:6C X:07 Y:00 P:24 SP:7D

<L007>  occurrences: 114  block_size:3  repeated_instances:2
sample block:
8E0C  C8       INY                              A:85 X:07 Y:00 P:A4 SP:7E
8E0D  B1 04    LDA LDA ($04),Y                  A:85 X:07 Y:01 P:24 SP:7E
8E0F  85 06    STA STA $06                      A:8B X:07 Y:01 P:A4 SP:7E

<L048>  occurrences: 8  block_size:2  repeated_instances:2
sample block:
822A  C8       INY                              A:F8 X:07 Y:00 P:A4 SP:7C
822B  C8       INY                              A:F8 X:07 Y:01 P:24 SP:7C

<L052>  occurrences: 6  block_size:1  repeated_instances:2
sample block:
8E19  AD 02 20 LDA LDA $2002                    A:F8 X:07 Y:00 P:26 SP:7C

<L001>  occurrences: 791  block_size:1  repeated_instances:3
sample block:
8EED  8D 00 20 STA STA $2000                    A:10 X:07 Y:00 P:24 SP:7A

<L040>  occurrences: 12  block_size:3  repeated_instances:3
sample block:
8E3B  8D 07 20 STA STA $2007                    A:24 X:04 Y:C0 P:24 SP:7A
8E3E  88       DEY                              A:24 X:04 Y:C0 P:24 SP:7A
8E3F  D0 FA    BNE BNE #$FA                     A:24 X:04 Y:BF P:A4 SP:7A

<L025>  occurrences: 32  block_size:6  repeated_instances:2
sample block:
8E3B  8D 07 20 STA STA $2007                    A:24 X:03 Y:00 P:24 SP:7A
8E3E  88       DEY                              A:24 X:03 Y:00 P:24 SP:7A
8E3F  D0 FA    BNE BNE #$FA                     A:24 X:03 Y:FF P:A4 SP:7A
8E3B  8D 07 20 STA STA $2007                    A:24 X:03 Y:FF P:A4 SP:7A
8E3E  88       DEY                              A:24 X:03 Y:FF P:A4 SP:7A
8E3F  D0 FA    BNE BNE #$FA                     A:24 X:03 Y:FE P:A4 SP:7A

<L025>  occurrences: 32  block_size:6  repeated_instances:2
sample block:
8E3B  8D 07 20 STA STA $2007                    A:24 X:02 Y:00 P:24 SP:7A
8E3E  88       DEY                              A:24 X:02 Y:00 P:24 SP:7A
8E3F  D0 FA    BNE BNE #$FA                     A:24 X:02 Y:FF P:A4 SP:7A
8E3B  8D 07 20 STA STA $2007                    A:24 X:02 Y:FF P:A4 SP:7A
8E3E  88       DEY                              A:24 X:02 Y:FF P:A4 SP:7A
8E3F  D0 FA    BNE BNE #$FA                     A:24 X:02 Y:FE P:A4 SP:7A

<L025>  occurrences: 32  block_size:6  repeated_instances:2
sample block:
8E3B  8D 07 20 STA STA $2007                    A:24 X:01 Y:00 P:24 SP:7A
8E3E  88       DEY                              A:24 X:01 Y:00 P:24 SP:7A
8E3F  D0 FA    BNE BNE #$FA                     A:24 X:01 Y:FF P:A4 SP:7A
8E3B  8D 07 20 STA STA $2007                    A:24 X:01 Y:FF P:A4 SP:7A
8E3E  88       DEY                              A:24 X:01 Y:FF P:A4 SP:7A
8E3F  D0 FA    BNE BNE #$FA                     A:24 X:01 Y:FE P:A4 SP:7A

<L027>  occurrences: 27  block_size:1  repeated_instances:2
sample block:
8E47  8D 00 03 STA STA $0300                    A:00 X:00 Y:40 P:26 SP:7A

<L025>  occurrences: 32  block_size:6  repeated_instances:2
sample block:
8E4D  8D 07 20 STA STA $2007                    A:00 X:00 Y:40 P:26 SP:7A
8E50  88       DEY                              A:00 X:00 Y:40 P:26 SP:7A
8E51  D0 FA    BNE BNE #$FA                     A:00 X:00 Y:3F P:24 SP:7A
8E4D  8D 07 20 STA STA $2007                    A:00 X:00 Y:3F P:24 SP:7A
8E50  88       DEY                              A:00 X:00 Y:3F P:24 SP:7A
8E51  D0 FA    BNE BNE #$FA                     A:00 X:00 Y:3E P:24 SP:7A

<L027>  occurrences: 27  block_size:1  repeated_instances:2
sample block:
8E53  8D 3F 07 STA STA $073F                    A:00 X:00 Y:00 P:26 SP:7A

<L001>  occurrences: 791  block_size:1  repeated_instances:3
sample block:
8EE6  8D 05 20 STA STA $2005                    A:00 X:00 Y:00 P:26 SP:7A

<L046>  occurrences: 9  block_size:2  repeated_instances:2
sample block:
8E2B  A9 20    LDA LDA #$20                     A:00 X:00 Y:00 P:26 SP:7C
8E2D  8D 06 20 STA STA $2006                    A:20 X:00 Y:00 P:24 SP:7C

<L040>  occurrences: 12  block_size:3  repeated_instances:3
sample block:
8E3B  8D 07 20 STA STA $2007                    A:24 X:04 Y:C0 P:24 SP:7C
8E3E  88       DEY                              A:24 X:04 Y:C0 P:24 SP:7C
8E3F  D0 FA    BNE BNE #$FA                     A:24 X:04 Y:BF P:A4 SP:7C

<L025>  occurrences: 32  block_size:6  repeated_instances:2
sample block:
8E3B  8D 07 20 STA STA $2007                    A:24 X:03 Y:00 P:24 SP:7C
8E3E  88       DEY                              A:24 X:03 Y:00 P:24 SP:7C
8E3F  D0 FA    BNE BNE #$FA                     A:24 X:03 Y:FF P:A4 SP:7C
8E3B  8D 07 20 STA STA $2007                    A:24 X:03 Y:FF P:A4 SP:7C
8E3E  88       DEY                              A:24 X:03 Y:FF P:A4 SP:7C
8E3F  D0 FA    BNE BNE #$FA                     A:24 X:03 Y:FE P:A4 SP:7C

<L025>  occurrences: 32  block_size:6  repeated_instances:2
sample block:
8E3B  8D 07 20 STA STA $2007                    A:24 X:02 Y:00 P:24 SP:7C
8E3E  88       DEY                              A:24 X:02 Y:00 P:24 SP:7C
8E3F  D0 FA    BNE BNE #$FA                     A:24 X:02 Y:FF P:A4 SP:7C
8E3B  8D 07 20 STA STA $2007                    A:24 X:02 Y:FF P:A4 SP:7C
8E3E  88       DEY                              A:24 X:02 Y:FF P:A4 SP:7C
8E3F  D0 FA    BNE BNE #$FA                     A:24 X:02 Y:FE P:A4 SP:7C

<L025>  occurrences: 32  block_size:6  repeated_instances:2
sample block:
8E3B  8D 07 20 STA STA $2007                    A:24 X:01 Y:00 P:24 SP:7C
8E3E  88       DEY                              A:24 X:01 Y:00 P:24 SP:7C
8E3F  D0 FA    BNE BNE #$FA                     A:24 X:01 Y:FF P:A4 SP:7C
8E3B  8D 07 20 STA STA $2007                    A:24 X:01 Y:FF P:A4 SP:7C
8E3E  88       DEY                              A:24 X:01 Y:FF P:A4 SP:7C
8E3F  D0 FA    BNE BNE #$FA                     A:24 X:01 Y:FE P:A4 SP:7C

<L027>  occurrences: 27  block_size:1  repeated_instances:2
sample block:
8E47  8D 00 03 STA STA $0300                    A:00 X:00 Y:40 P:26 SP:7C

<L025>  occurrences: 32  block_size:6  repeated_instances:2
sample block:
8E4D  8D 07 20 STA STA $2007                    A:00 X:00 Y:40 P:26 SP:7C
8E50  88       DEY                              A:00 X:00 Y:40 P:26 SP:7C
8E51  D0 FA    BNE BNE #$FA                     A:00 X:00 Y:3F P:24 SP:7C
8E4D  8D 07 20 STA STA $2007                    A:00 X:00 Y:3F P:24 SP:7C
8E50  88       DEY                              A:00 X:00 Y:3F P:24 SP:7C
8E51  D0 FA    BNE BNE #$FA                     A:00 X:00 Y:3E P:24 SP:7C

<L027>  occurrences: 27  block_size:1  repeated_instances:2
sample block:
8E53  8D 3F 07 STA STA $073F                    A:00 X:00 Y:00 P:26 SP:7C

<L001>  occurrences: 791  block_size:1  repeated_instances:3
sample block:
8EE6  8D 05 20 STA STA $2005                    A:00 X:00 Y:00 P:26 SP:7C

<L026>  occurrences: 30  block_size:5  repeated_instances:2
sample block:
FFFA  82 80    *NOP *NOP #$80                   A:90 X:00 Y:00 P:26 SP:84
FFFC  00       BRK                              A:90 X:00 Y:00 P:26 SP:84
FFF0  19 19 1A ORA ORA $1A19,Y                  A:90 X:00 Y:00 P:26 SP:81
FFF3  1A       *NOP                             A:90 X:00 Y:00 P:A4 SP:81
FFF4  1C 1D 1D *NOP *NOP $1D1D,X                A:90 X:00 Y:00 P:A4 SP:81

<L011>  occurrences: 64  block_size:2  repeated_instances:2
sample block:
8085  29 7F    AND AND #$7F                     A:10 X:00 Y:00 P:24 SP:CD
8087  8D 78 07 STA STA $0778                    A:10 X:00 Y:00 P:24 SP:CD

<L011>  occurrences: 64  block_size:2  repeated_instances:2
sample block:
8097  D0 05    BNE BNE #$05                     A:00 X:00 Y:01 P:24 SP:CD
809E  8D 79 07 STA STA $0779                    A:00 X:00 Y:01 P:24 SP:CD

<L002>  occurrences: 396  block_size:2  repeated_instances:2
sample block:
80AB  20 E6 8E JSR JSR $8EE6                    A:00 X:80 Y:01 P:26 SP:CD
8EE6  8D 05 20 STA STA $2005                    A:00 X:80 Y:01 P:26 SP:CB

<L001>  occurrences: 791  block_size:1  repeated_instances:2
sample block:
80BC  85 00    STA STA $00                      A:01 X:00 Y:01 P:24 SP:CD

<L005>  occurrences: 138  block_size:3  repeated_instances:2
sample block:
8EDD  AE 02 20 LDX LDX $2002                    A:03 X:00 Y:01 P:24 SP:CB
8EE0  A0 00    LDY LDY #$00                     A:03 X:00 Y:01 P:26 SP:CB
8EE2  B1 00    LDA LDA ($00),Y                  A:03 X:00 Y:00 P:26 SP:CB

<L001>  occurrences: 791  block_size:1  repeated_instances:2
sample block:
80CB  E0 06    CPX CPX #$06                     A:00 X:00 Y:00 P:26 SP:CD

<L022>  occurrences: 34  block_size:1  repeated_instances:2
sample block:
80D5  9D 00 03 STA STA $0300,X                  A:00 X:00 Y:00 P:26 SP:CD

<L001>  occurrences: 791  block_size:1  repeated_instances:2
sample block:
80DB  8D 73 07 STA STA $0773                    A:00 X:00 Y:00 P:26 SP:CD

<L010>  occurrences: 80  block_size:6  repeated_instances:2
sample block:
8FA1  BD DD 07 LDA LDA $07DD,X                  A:00 X:05 Y:05 P:25 SP:C9
8FA4  F9 D7 07 SBC SBC $07D7,Y                  A:00 X:05 Y:05 P:27 SP:C9
8FA7  CA       DEX                              A:00 X:05 Y:05 P:27 SP:C9
8FA8  88       DEY                              A:00 X:04 Y:05 P:25 SP:C9
8FA9  10 F6    BPL BPL #$F6                     A:00 X:04 Y:04 P:25 SP:C9
8FA1  BD DD 07 LDA LDA $07DD,X                  A:00 X:04 Y:04 P:25 SP:C9

<L005>  occurrences: 138  block_size:3  repeated_instances:2
sample block:
8FAF  BD DD 07 LDA LDA $07DD,X                  A:00 X:00 Y:00 P:27 SP:C9
8FB2  99 D7 07 STA STA $07D7,Y                  A:00 X:00 Y:00 P:27 SP:C9
8FB5  E8       INX                              A:00 X:00 Y:00 P:27 SP:C9

<L010>  occurrences: 80  block_size:6  repeated_instances:2
sample block:
8FA1  BD DD 07 LDA LDA $07DD,X                  A:00 X:0B Y:05 P:25 SP:CB
8FA4  F9 D7 07 SBC SBC $07D7,Y                  A:00 X:0B Y:05 P:27 SP:CB
8FA7  CA       DEX                              A:00 X:0B Y:05 P:27 SP:CB
8FA8  88       DEY                              A:00 X:0A Y:05 P:25 SP:CB
8FA9  10 F6    BPL BPL #$F6                     A:00 X:0A Y:04 P:25 SP:CB
8FA1  BD DD 07 LDA LDA $07DD,X                  A:00 X:0A Y:04 P:25 SP:CB

<L005>  occurrences: 138  block_size:3  repeated_instances:2
sample block:
8FAF  BD DD 07 LDA LDA $07DD,X                  A:00 X:06 Y:00 P:27 SP:CB
8FB2  99 D7 07 STA STA $07D7,Y                  A:00 X:06 Y:00 P:27 SP:CB
8FB5  E8       INX                              A:00 X:06 Y:00 P:27 SP:CB

<L016>  occurrences: 50  block_size:4  repeated_instances:3
sample block:
810E  BD 80 07 LDA LDA $0780,X                  A:00 X:14 Y:06 P:24 SP:CD
8111  F0 03    BEQ BEQ #$03                     A:00 X:14 Y:06 P:26 SP:CD
8116  CA       DEX                              A:00 X:14 Y:06 P:26 SP:CD
8117  10 F5    BPL BPL #$F5                     A:00 X:13 Y:06 P:24 SP:CD

<L015>  occurrences: 51  block_size:4  repeated_instances:3
sample block:
8131  7E A7 07 ROR ROR $07A7,X                  A:00 X:00 Y:07 P:26 SP:CD
8134  E8       INX                              A:00 X:00 Y:07 P:25 SP:CD
8135  88       DEY                              A:00 X:01 Y:07 P:25 SP:CD
8136  D0 F9    BNE BNE #$F9                     A:00 X:01 Y:06 P:25 SP:CD

<L023>  occurrences: 34  block_size:2  repeated_instances:2
sample block:
815C  AD 3F 07 LDA LDA $073F                    A:00 X:07 Y:00 P:26 SP:CD
815F  8D 05 20 STA STA $2005                    A:00 X:07 Y:00 P:26 SP:CD

<L006>  occurrences: 114  block_size:2  repeated_instances:2
sample block:
8E06  68       PLA                              A:00 X:07 Y:00 P:26 SP:C8
8E07  85 04    STA STA $04                      A:17 X:07 Y:00 P:24 SP:C9

<L007>  occurrences: 114  block_size:3  repeated_instances:2
sample block:
8E0C  C8       INY                              A:82 X:07 Y:00 P:A4 SP:CA
8E0D  B1 04    LDA LDA ($04),Y                  A:82 X:07 Y:01 P:24 SP:CA
8E0F  85 06    STA STA $06                      A:31 X:07 Y:01 P:24 SP:CA

<L006>  occurrences: 114  block_size:2  repeated_instances:2
sample block:
8E06  68       PLA                              A:02 X:07 Y:02 P:24 SP:C8
8E07  85 04    STA STA $04                      A:36 X:07 Y:02 P:24 SP:C9

<L007>  occurrences: 114  block_size:3  repeated_instances:2
sample block:
8E0C  C8       INY                              A:82 X:07 Y:02 P:A4 SP:CA
8E0D  B1 04    LDA LDA ($04),Y                  A:82 X:07 Y:03 P:24 SP:CA
8E0F  85 06    STA STA $06                      A:67 X:07 Y:03 P:24 SP:CA

<L006>  occurrences: 114  block_size:2  repeated_instances:2
sample block:
8E06  68       PLA                              A:02 X:07 Y:02 P:24 SP:C8
8E07  85 04    STA STA $04                      A:6C X:07 Y:02 P:24 SP:C9

<L007>  occurrences: 114  block_size:3  repeated_instances:2
sample block:
8E0C  C8       INY                              A:85 X:07 Y:02 P:A4 SP:CA
8E0D  B1 04    LDA LDA ($04),Y                  A:85 X:07 Y:03 P:24 SP:CA
8E0F  85 06    STA STA $06                      A:9B X:07 Y:03 P:A4 SP:CA

<L067>  occurrences: 2  block_size:2  repeated_instances:2
sample block:
859B  AD 44 07 LDA LDA $0744                    A:85 X:07 Y:04 P:A4 SP:CA
859E  48       PHA                              A:00 X:07 Y:04 P:26 SP:CA

<L001>  occurrences: 791  block_size:1  repeated_instances:2
sample block:
85AA  8D 44 07 STA STA $0744                    A:02 X:07 Y:04 P:24 SP:C8

<L049>  occurrences: 8  block_size:12  repeated_instances:2
sample block:
860A  B9 D7 85 LDA LDA $85D7,Y                  A:03 X:00 Y:00 P:24 SP:C6
860D  9D 04 03 STA STA $0304,X                  A:22 X:00 Y:00 P:24 SP:C6
8610  C8       INY                              A:22 X:00 Y:00 P:24 SP:C6
8611  E8       INX                              A:22 X:00 Y:01 P:24 SP:C6
8612  C6 00    DEC DEC $00                      A:22 X:01 Y:01 P:24 SP:C6
8614  10 F4    BPL BPL #$F4                     A:22 X:01 Y:01 P:24 SP:C6
860A  B9 D7 85 LDA LDA $85D7,Y                  A:22 X:01 Y:01 P:24 SP:C6
860D  9D 04 03 STA STA $0304,X                  A:16 X:01 Y:01 P:24 SP:C6
8610  C8       INY                              A:16 X:01 Y:01 P:24 SP:C6
8611  E8       INX                              A:16 X:01 Y:02 P:24 SP:C6
8612  C6 00    DEC DEC $00                      A:16 X:02 Y:02 P:24 SP:C6
8614  10 F4    BPL BPL #$F4                     A:16 X:02 Y:02 P:24 SP:C6

<L053>  occurrences: 6  block_size:4  repeated_instances:2
sample block:
8624  9D 04 03 STA STA $0304,X                  A:0F X:00 Y:02 P:24 SP:C6
8627  A9 3F    LDA LDA #$3F                     A:0F X:00 Y:02 P:24 SP:C6
8629  9D 01 03 STA STA $0301,X                  A:3F X:00 Y:02 P:24 SP:C6
862C  A9 10    LDA LDA #$10                     A:3F X:00 Y:02 P:24 SP:C6

<L068>  occurrences: 2  block_size:2  repeated_instances:2
sample block:
85B0  68       PLA                              A:07 X:00 Y:02 P:24 SP:C8
85B1  8D 56 07 STA STA $0756                    A:00 X:00 Y:02 P:26 SP:C9

<L018>  occurrences: 46  block_size:4  repeated_instances:2
sample block:
FFF7  1E 1E 1F ASL ASL $1F1E,X                  A:90 X:00 Y:02 P:A4 SP:D0
FFFA  82 80    *NOP *NOP #$80                   A:90 X:00 Y:02 P:26 SP:D0
FFFC  00       BRK                              A:90 X:00 Y:02 P:26 SP:D0
FFF0  19 19 1A ORA ORA $1A19,Y                  A:90 X:00 Y:02 P:26 SP:CD

<L011>  occurrences: 64  block_size:2  repeated_instances:2
sample block:
8085  29 7F    AND AND #$7F                     A:10 X:00 Y:02 P:24 SP:55
8087  8D 78 07 STA STA $0778                    A:10 X:00 Y:02 P:24 SP:55

<L011>  occurrences: 64  block_size:2  repeated_instances:2
sample block:
8097  D0 05    BNE BNE #$05                     A:00 X:00 Y:01 P:24 SP:55
809E  8D 79 07 STA STA $0779                    A:00 X:00 Y:01 P:24 SP:55

<L002>  occurrences: 396  block_size:2  repeated_instances:2
sample block:
80AB  20 E6 8E JSR JSR $8EE6                    A:00 X:80 Y:01 P:26 SP:55
8EE6  8D 05 20 STA STA $2005                    A:00 X:80 Y:01 P:26 SP:53

<L001>  occurrences: 791  block_size:1  repeated_instances:2
sample block:
80BC  85 00    STA STA $00                      A:01 X:00 Y:01 P:24 SP:55

<L002>  occurrences: 396  block_size:2  repeated_instances:2
sample block:
8EDD  AE 02 20 LDX LDX $2002                    A:03 X:00 Y:01 P:24 SP:53
8EE0  A0 00    LDY LDY #$00                     A:03 X:00 Y:01 P:26 SP:53

<L008>  occurrences: 106  block_size:3  repeated_instances:2
sample block:
8E92  8D 06 20 STA STA $2006                    A:3F X:00 Y:00 P:24 SP:53
8E95  C8       INY                              A:3F X:00 Y:00 P:24 SP:53
8E96  B1 00    LDA LDA ($00),Y                  A:3F X:00 Y:01 P:24 SP:53

<L003>  occurrences: 238  block_size:12  repeated_instances:4
sample block:
8EA0  AD 78 07 LDA LDA $0778                    A:08 X:00 Y:02 P:24 SP:52
8EA3  09 04    ORA ORA #$04                     A:10 X:00 Y:02 P:24 SP:52
8EA5  B0 02    BCS BCS #$02                     A:14 X:00 Y:02 P:24 SP:52
8EA7  29 FB    AND AND #$FB                     A:14 X:00 Y:02 P:24 SP:52
8EA9  20 ED 8E JSR JSR $8EED                    A:10 X:00 Y:02 P:24 SP:52
8EED  8D 00 20 STA STA $2000                    A:10 X:00 Y:02 P:24 SP:50
8EF0  8D 78 07 STA STA $0778                    A:10 X:00 Y:02 P:24 SP:50
8EF3  60       RTS                              A:10 X:00 Y:02 P:24 SP:50
8EAC  68       PLA                              A:10 X:00 Y:02 P:24 SP:52
8EAD  0A       ASL A                            A:08 X:00 Y:02 P:24 SP:53
8EAE  90 03    BCC BCC #$03                     A:10 X:00 Y:02 P:24 SP:53
8EB3  4A       LSR A                            A:10 X:00 Y:02 P:24 SP:53

<L026>  occurrences: 30  block_size:5  repeated_instances:2
sample block:
8ED4  8D 06 20 STA STA $2006                    A:00 X:00 Y:06 P:26 SP:53
8ED7  8D 06 20 STA STA $2006                    A:00 X:00 Y:06 P:26 SP:53
8EDA  8D 06 20 STA STA $2006                    A:00 X:00 Y:06 P:26 SP:53
8EDD  AE 02 20 LDX LDX $2002                    A:00 X:00 Y:06 P:26 SP:53
8EE0  A0 00    LDY LDY #$00                     A:00 X:00 Y:06 P:26 SP:53

<L001>  occurrences: 791  block_size:1  repeated_instances:2
sample block:
80CB  E0 06    CPX CPX #$06                     A:00 X:00 Y:00 P:26 SP:55

<L022>  occurrences: 34  block_size:1  repeated_instances:2
sample block:
80D5  9D 00 03 STA STA $0300,X                  A:00 X:00 Y:00 P:26 SP:55

<L001>  occurrences: 791  block_size:1  repeated_instances:2
sample block:
80DB  8D 73 07 STA STA $0773                    A:00 X:00 Y:00 P:26 SP:55

<L010>  occurrences: 80  block_size:6  repeated_instances:2
sample block:
8FA1  BD DD 07 LDA LDA $07DD,X                  A:00 X:05 Y:05 P:25 SP:51
8FA4  F9 D7 07 SBC SBC $07D7,Y                  A:00 X:05 Y:05 P:27 SP:51
8FA7  CA       DEX                              A:00 X:05 Y:05 P:27 SP:51
8FA8  88       DEY                              A:00 X:04 Y:05 P:25 SP:51
8FA9  10 F6    BPL BPL #$F6                     A:00 X:04 Y:04 P:25 SP:51
8FA1  BD DD 07 LDA LDA $07DD,X                  A:00 X:04 Y:04 P:25 SP:51

<L005>  occurrences: 138  block_size:3  repeated_instances:2
sample block:
8FAF  BD DD 07 LDA LDA $07DD,X                  A:00 X:00 Y:00 P:27 SP:51
8FB2  99 D7 07 STA STA $07D7,Y                  A:00 X:00 Y:00 P:27 SP:51
8FB5  E8       INX                              A:00 X:00 Y:00 P:27 SP:51

<L010>  occurrences: 80  block_size:6  repeated_instances:2
sample block:
8FA1  BD DD 07 LDA LDA $07DD,X                  A:00 X:0B Y:05 P:25 SP:53
8FA4  F9 D7 07 SBC SBC $07D7,Y                  A:00 X:0B Y:05 P:27 SP:53
8FA7  CA       DEX                              A:00 X:0B Y:05 P:27 SP:53
8FA8  88       DEY                              A:00 X:0A Y:05 P:25 SP:53
8FA9  10 F6    BPL BPL #$F6                     A:00 X:0A Y:04 P:25 SP:53
8FA1  BD DD 07 LDA LDA $07DD,X                  A:00 X:0A Y:04 P:25 SP:53

<L005>  occurrences: 138  block_size:3  repeated_instances:2
sample block:
8FAF  BD DD 07 LDA LDA $07DD,X                  A:00 X:06 Y:00 P:27 SP:53
8FB2  99 D7 07 STA STA $07D7,Y                  A:00 X:06 Y:00 P:27 SP:53
8FB5  E8       INX                              A:00 X:06 Y:00 P:27 SP:53

<L016>  occurrences: 50  block_size:4  repeated_instances:3
sample block:
810E  BD 80 07 LDA LDA $0780,X                  A:00 X:14 Y:06 P:24 SP:55
8111  F0 03    BEQ BEQ #$03                     A:00 X:14 Y:06 P:26 SP:55
8116  CA       DEX                              A:00 X:14 Y:06 P:26 SP:55
8117  10 F5    BPL BPL #$F5                     A:00 X:13 Y:06 P:24 SP:55

<L015>  occurrences: 51  block_size:4  repeated_instances:3
sample block:
8131  7E A7 07 ROR ROR $07A7,X                  A:00 X:00 Y:07 P:26 SP:55
8134  E8       INX                              A:00 X:00 Y:07 P:24 SP:55
8135  88       DEY                              A:00 X:01 Y:07 P:24 SP:55
8136  D0 F9    BNE BNE #$F9                     A:00 X:01 Y:06 P:24 SP:55

<L023>  occurrences: 34  block_size:2  repeated_instances:2
sample block:
815C  AD 3F 07 LDA LDA $073F                    A:00 X:07 Y:00 P:26 SP:55
815F  8D 05 20 STA STA $2005                    A:00 X:07 Y:00 P:26 SP:55

<L006>  occurrences: 114  block_size:2  repeated_instances:2
sample block:
8E06  68       PLA                              A:00 X:07 Y:00 P:26 SP:50
8E07  85 04    STA STA $04                      A:17 X:07 Y:00 P:24 SP:51

<L007>  occurrences: 114  block_size:3  repeated_instances:2
sample block:
8E0C  C8       INY                              A:82 X:07 Y:00 P:A4 SP:52
8E0D  B1 04    LDA LDA ($04),Y                  A:82 X:07 Y:01 P:24 SP:52
8E0F  85 06    STA STA $06                      A:31 X:07 Y:01 P:24 SP:52

<L006>  occurrences: 114  block_size:2  repeated_instances:2
sample block:
8E06  68       PLA                              A:02 X:07 Y:02 P:24 SP:50
8E07  85 04    STA STA $04                      A:36 X:07 Y:02 P:24 SP:51

<L007>  occurrences: 114  block_size:3  repeated_instances:2
sample block:
8E0C  C8       INY                              A:82 X:07 Y:02 P:A4 SP:52
8E0D  B1 04    LDA LDA ($04),Y                  A:82 X:07 Y:03 P:24 SP:52
8E0F  85 06    STA STA $06                      A:67 X:07 Y:03 P:24 SP:52

<L006>  occurrences: 114  block_size:2  repeated_instances:2
sample block:
8E06  68       PLA                              A:04 X:07 Y:04 P:24 SP:50
8E07  85 04    STA STA $04                      A:6C X:07 Y:04 P:24 SP:51

<L007>  occurrences: 114  block_size:3  repeated_instances:2
sample block:
8E0C  C8       INY                              A:85 X:07 Y:04 P:A4 SP:52
8E0D  B1 04    LDA LDA ($04),Y                  A:85 X:07 Y:05 P:24 SP:52
8E0F  85 06    STA STA $06                      A:52 X:07 Y:05 P:24 SP:52

<L037>  occurrences: 15  block_size:7  repeated_instances:15
sample block:
8820  BD 52 87 LDA LDA $8752,X                  A:00 X:00 Y:00 P:26 SP:4F
8823  C9 FF    CMP CMP #$FF                     A:20 X:00 Y:00 P:24 SP:4F
8825  F0 07    BEQ BEQ #$07                     A:20 X:00 Y:00 P:24 SP:4F
8827  99 01 03 STA STA $0301,Y                  A:20 X:00 Y:00 P:24 SP:4F
882A  E8       INX                              A:20 X:00 Y:00 P:24 SP:4F
882B  C8       INY                              A:20 X:01 Y:00 P:24 SP:4F
882C  D0 F2    BNE BNE #$F2                     A:20 X:01 Y:01 P:24 SP:4F

<L034>  occurrences: 20  block_size:7  repeated_instances:9
sample block:
882C  D0 F2    BNE BNE #$F2                     A:0D X:10 Y:10 P:24 SP:4F
8820  BD 52 87 LDA LDA $8752,X                  A:0D X:10 Y:10 P:24 SP:4F
8823  C9 FF    CMP CMP #$FF                     A:24 X:10 Y:10 P:24 SP:4F
8825  F0 07    BEQ BEQ #$07                     A:24 X:10 Y:10 P:24 SP:4F
8827  99 01 03 STA STA $0301,Y                  A:24 X:10 Y:10 P:24 SP:4F
882A  E8       INX                              A:24 X:10 Y:10 P:24 SP:4F
882B  C8       INY                              A:24 X:11 Y:10 P:24 SP:4F

<L034>  occurrences: 20  block_size:7  repeated_instances:11
sample block:
882C  D0 F2    BNE BNE #$F2                     A:00 X:1A Y:1A P:24 SP:4F
8820  BD 52 87 LDA LDA $8752,X                  A:00 X:1A Y:1A P:24 SP:4F
8823  C9 FF    CMP CMP #$FF                     A:24 X:1A Y:1A P:24 SP:4F
8825  F0 07    BEQ BEQ #$07                     A:24 X:1A Y:1A P:24 SP:4F
8827  99 01 03 STA STA $0301,Y                  A:24 X:1A Y:1A P:24 SP:4F
882A  E8       INX                              A:24 X:1A Y:1A P:24 SP:4F
882B  C8       INY                              A:24 X:1B Y:1A P:24 SP:4F

<L018>  occurrences: 46  block_size:4  repeated_instances:2
sample block:
FFF0  19 19 1A ORA ORA $1A19,Y                  A:90 X:FF Y:26 P:26 SP:58
FFF3  1A       *NOP                             A:90 X:FF Y:26 P:A4 SP:58
FFF4  1C 1D 1D *NOP *NOP $1D1D,X                A:90 X:FF Y:26 P:A4 SP:58
FFF7  1E 1E 1F ASL ASL $1F1E,X                  A:90 X:FF Y:26 P:A4 SP:58

<L011>  occurrences: 64  block_size:2  repeated_instances:2
sample block:
8085  29 7F    AND AND #$7F                     A:10 X:FF Y:26 P:24 SP:3D
8087  8D 78 07 STA STA $0778                    A:10 X:FF Y:26 P:24 SP:3D

<L011>  occurrences: 64  block_size:2  repeated_instances:2
sample block:
8097  D0 05    BNE BNE #$05                     A:00 X:FF Y:01 P:24 SP:3D
809E  8D 79 07 STA STA $0779                    A:00 X:FF Y:01 P:24 SP:3D

<L002>  occurrences: 396  block_size:2  repeated_instances:2
sample block:
80AB  20 E6 8E JSR JSR $8EE6                    A:00 X:80 Y:01 P:26 SP:3D
8EE6  8D 05 20 STA STA $2005                    A:00 X:80 Y:01 P:26 SP:3B

<L001>  occurrences: 791  block_size:1  repeated_instances:2
sample block:
80BC  85 00    STA STA $00                      A:01 X:00 Y:01 P:24 SP:3D

<L002>  occurrences: 396  block_size:2  repeated_instances:2
sample block:
8EDD  AE 02 20 LDX LDX $2002                    A:03 X:00 Y:01 P:24 SP:3B
8EE0  A0 00    LDY LDY #$00                     A:03 X:00 Y:01 P:26 SP:3B

<L008>  occurrences: 106  block_size:3  repeated_instances:2
sample block:
8E92  8D 06 20 STA STA $2006                    A:20 X:00 Y:00 P:24 SP:3B
8E95  C8       INY                              A:20 X:00 Y:00 P:24 SP:3B
8E96  B1 00    LDA LDA ($00),Y                  A:20 X:00 Y:01 P:24 SP:3B

<L003>  occurrences: 238  block_size:12  repeated_instances:5
sample block:
8EA0  AD 78 07 LDA LDA $0778                    A:0A X:00 Y:02 P:24 SP:3A
8EA3  09 04    ORA ORA #$04                     A:10 X:00 Y:02 P:24 SP:3A
8EA5  B0 02    BCS BCS #$02                     A:14 X:00 Y:02 P:24 SP:3A
8EA7  29 FB    AND AND #$FB                     A:14 X:00 Y:02 P:24 SP:3A
8EA9  20 ED 8E JSR JSR $8EED                    A:10 X:00 Y:02 P:24 SP:3A
8EED  8D 00 20 STA STA $2000                    A:10 X:00 Y:02 P:24 SP:38
8EF0  8D 78 07 STA STA $0778                    A:10 X:00 Y:02 P:24 SP:38
8EF3  60       RTS                              A:10 X:00 Y:02 P:24 SP:38
8EAC  68       PLA                              A:10 X:00 Y:02 P:24 SP:3A
8EAD  0A       ASL A                            A:0A X:00 Y:02 P:24 SP:3B
8EAE  90 03    BCC BCC #$03                     A:14 X:00 Y:02 P:24 SP:3B
8EB3  4A       LSR A                            A:14 X:00 Y:02 P:24 SP:3B

<L008>  occurrences: 106  block_size:3  repeated_instances:2
sample block:
8E92  8D 06 20 STA STA $2006                    A:20 X:00 Y:00 P:24 SP:3B
8E95  C8       INY                              A:20 X:00 Y:00 P:24 SP:3B
8E96  B1 00    LDA LDA ($00),Y                  A:20 X:00 Y:01 P:24 SP:3B

<L003>  occurrences: 238  block_size:12  repeated_instances:3
sample block:
8EA0  AD 78 07 LDA LDA $0778                    A:16 X:00 Y:02 P:24 SP:3A
8EA3  09 04    ORA ORA #$04                     A:10 X:00 Y:02 P:24 SP:3A
8EA5  B0 02    BCS BCS #$02                     A:14 X:00 Y:02 P:24 SP:3A
8EA7  29 FB    AND AND #$FB                     A:14 X:00 Y:02 P:24 SP:3A
8EA9  20 ED 8E JSR JSR $8EED                    A:10 X:00 Y:02 P:24 SP:3A
8EED  8D 00 20 STA STA $2000                    A:10 X:00 Y:02 P:24 SP:38
8EF0  8D 78 07 STA STA $0778                    A:10 X:00 Y:02 P:24 SP:38
8EF3  60       RTS                              A:10 X:00 Y:02 P:24 SP:38
8EAC  68       PLA                              A:10 X:00 Y:02 P:24 SP:3A
8EAD  0A       ASL A                            A:16 X:00 Y:02 P:24 SP:3B
8EAE  90 03    BCC BCC #$03                     A:2C X:00 Y:02 P:24 SP:3B
8EB3  4A       LSR A                            A:2C X:00 Y:02 P:24 SP:3B

<L026>  occurrences: 30  block_size:5  repeated_instances:2
sample block:
8EBE  CA       DEX                              A:15 X:08 Y:06 P:24 SP:3B
8EBF  D0 F5    BNE BNE #$F5                     A:15 X:07 Y:06 P:24 SP:3B
8EB6  B0 01    BCS BCS #$01                     A:15 X:07 Y:06 P:24 SP:3B
8EB8  C8       INY                              A:15 X:07 Y:06 P:24 SP:3B
8EB9  B1 00    LDA LDA ($00),Y                  A:15 X:07 Y:07 P:24 SP:3B

<L003>  occurrences: 238  block_size:12  repeated_instances:3
sample block:
8EB9  B1 00    LDA LDA ($00),Y                  A:0D X:06 Y:08 P:24 SP:3B
8EBB  8D 07 20 STA STA $2007                    A:24 X:06 Y:08 P:24 SP:3B
8EBE  CA       DEX                              A:24 X:06 Y:08 P:24 SP:3B
8EBF  D0 F5    BNE BNE #$F5                     A:24 X:05 Y:08 P:24 SP:3B
8EB6  B0 01    BCS BCS #$01                     A:24 X:05 Y:08 P:24 SP:3B
8EB8  C8       INY                              A:24 X:05 Y:08 P:24 SP:3B
8EB9  B1 00    LDA LDA ($00),Y                  A:24 X:04 Y:0A P:24 SP:3B
8EBB  8D 07 20 STA STA $2007                    A:1D X:04 Y:0A P:24 SP:3B
8EBE  CA       DEX                              A:1D X:04 Y:0A P:24 SP:3B
8EBF  D0 F5    BNE BNE #$F5                     A:1D X:03 Y:0A P:24 SP:3B
8EB6  B0 01    BCS BCS #$01                     A:1D X:03 Y:0A P:24 SP:3B
8EB8  C8       INY                              A:1D X:03 Y:0A P:24 SP:3B

<L018>  occurrences: 46  block_size:4  repeated_instances:2
sample block:
8ECF  8D 06 20 STA STA $2006                    A:3F X:00 Y:0D P:24 SP:3B
8ED2  A9 00    LDA LDA #$00                     A:3F X:00 Y:0D P:24 SP:3B
8ED4  8D 06 20 STA STA $2006                    A:00 X:00 Y:0D P:26 SP:3B
8ED7  8D 06 20 STA STA $2006                    A:00 X:00 Y:0D P:26 SP:3B

<L008>  occurrences: 106  block_size:3  repeated_instances:2
sample block:
8E92  8D 06 20 STA STA $2006                    A:20 X:00 Y:00 P:24 SP:3B
8E95  C8       INY                              A:20 X:00 Y:00 P:24 SP:3B
8E96  B1 00    LDA LDA ($00),Y                  A:20 X:00 Y:01 P:24 SP:3B

<L032>  occurrences: 22  block_size:11  repeated_instances:2
sample block:
8EA0  AD 78 07 LDA LDA $0778                    A:0A X:00 Y:02 P:24 SP:3A
8EA3  09 04    ORA ORA #$04                     A:10 X:00 Y:02 P:24 SP:3A
8EA5  B0 02    BCS BCS #$02                     A:14 X:00 Y:02 P:24 SP:3A
8EA7  29 FB    AND AND #$FB                     A:14 X:00 Y:02 P:24 SP:3A
8EA9  20 ED 8E JSR JSR $8EED                    A:10 X:00 Y:02 P:24 SP:3A
8EED  8D 00 20 STA STA $2000                    A:10 X:00 Y:02 P:24 SP:38
8EF0  8D 78 07 STA STA $0778                    A:10 X:00 Y:02 P:24 SP:38
8EF3  60       RTS                              A:10 X:00 Y:02 P:24 SP:38
8EAC  68       PLA                              A:10 X:00 Y:02 P:24 SP:3A
8EAD  0A       ASL A                            A:0A X:00 Y:02 P:24 SP:3B
8EAE  90 03    BCC BCC #$03                     A:14 X:00 Y:02 P:24 SP:3B

<L003>  occurrences: 238  block_size:12  repeated_instances:2
sample block:
8EB9  B1 00    LDA LDA ($00),Y                  A:00 X:04 Y:04 P:24 SP:3B
8EBB  8D 07 20 STA STA $2007                    A:24 X:04 Y:04 P:24 SP:3B
8EBE  CA       DEX                              A:24 X:04 Y:04 P:24 SP:3B
8EBF  D0 F5    BNE BNE #$F5                     A:24 X:03 Y:04 P:24 SP:3B
8EB6  B0 01    BCS BCS #$01                     A:24 X:03 Y:04 P:24 SP:3B
8EB8  C8       INY                              A:24 X:03 Y:04 P:24 SP:3B
8EB9  B1 00    LDA LDA ($00),Y                  A:24 X:02 Y:06 P:24 SP:3B
8EBB  8D 07 20 STA STA $2007                    A:2E X:02 Y:06 P:24 SP:3B
8EBE  CA       DEX                              A:2E X:02 Y:06 P:24 SP:3B
8EBF  D0 F5    BNE BNE #$F5                     A:2E X:01 Y:06 P:24 SP:3B
8EB6  B0 01    BCS BCS #$01                     A:2E X:01 Y:06 P:24 SP:3B
8EB8  C8       INY                              A:2E X:01 Y:06 P:24 SP:3B

<L018>  occurrences: 46  block_size:4  repeated_instances:2
sample block:
8ECF  8D 06 20 STA STA $2006                    A:3F X:00 Y:07 P:24 SP:3B
8ED2  A9 00    LDA LDA #$00                     A:3F X:00 Y:07 P:24 SP:3B
8ED4  8D 06 20 STA STA $2006                    A:00 X:00 Y:07 P:26 SP:3B
8ED7  8D 06 20 STA STA $2006                    A:00 X:00 Y:07 P:26 SP:3B

<L008>  occurrences: 106  block_size:3  repeated_instances:2
sample block:
8E92  8D 06 20 STA STA $2006                    A:23 X:00 Y:00 P:24 SP:3B
8E95  C8       INY                              A:23 X:00 Y:00 P:24 SP:3B
8E96  B1 00    LDA LDA ($00),Y                  A:23 X:00 Y:01 P:24 SP:3B

<L031>  occurrences: 22  block_size:8  repeated_instances:2
sample block:
8EA0  AD 78 07 LDA LDA $0778                    A:FE X:00 Y:02 P:A4 SP:3A
8EA3  09 04    ORA ORA #$04                     A:10 X:00 Y:02 P:24 SP:3A
8EA5  B0 02    BCS BCS #$02                     A:14 X:00 Y:02 P:24 SP:3A
8EA7  29 FB    AND AND #$FB                     A:14 X:00 Y:02 P:24 SP:3A
8EA9  20 ED 8E JSR JSR $8EED                    A:10 X:00 Y:02 P:24 SP:3A
8EED  8D 00 20 STA STA $2000                    A:10 X:00 Y:02 P:24 SP:38
8EF0  8D 78 07 STA STA $0778                    A:10 X:00 Y:02 P:24 SP:38
8EF3  60       RTS                              A:10 X:00 Y:02 P:24 SP:38

<L003>  occurrences: 238  block_size:12  repeated_instances:2
sample block:
8EB6  B0 01    BCS BCS #$01                     A:3F X:3F Y:03 P:25 SP:3B
8EB9  B1 00    LDA LDA ($00),Y                  A:3F X:3F Y:03 P:25 SP:3B
8EBB  8D 07 20 STA STA $2007                    A:AA X:3F Y:03 P:A5 SP:3B
8EBE  CA       DEX                              A:AA X:3F Y:03 P:A5 SP:3B
8EBF  D0 F5    BNE BNE #$F5                     A:AA X:3E Y:03 P:25 SP:3B
8EB6  B0 01    BCS BCS #$01                     A:AA X:3E Y:03 P:25 SP:3B
8EB9  B1 00    LDA LDA ($00),Y                  A:AA X:3E Y:03 P:25 SP:3B
8EBB  8D 07 20 STA STA $2007                    A:AA X:3E Y:03 P:A5 SP:3B
8EBE  CA       DEX                              A:AA X:3E Y:03 P:A5 SP:3B
8EBF  D0 F5    BNE BNE #$F5                     A:AA X:3D Y:03 P:25 SP:3B
8EB6  B0 01    BCS BCS #$01                     A:AA X:01 Y:03 P:25 SP:3B
8EB9  B1 00    LDA LDA ($00),Y                  A:AA X:01 Y:03 P:25 SP:3B

<L018>  occurrences: 46  block_size:4  repeated_instances:2
sample block:
8ED2  A9 00    LDA LDA #$00                     A:3F X:00 Y:03 P:24 SP:3B
8ED4  8D 06 20 STA STA $2006                    A:00 X:00 Y:03 P:26 SP:3B
8ED7  8D 06 20 STA STA $2006                    A:00 X:00 Y:03 P:26 SP:3B
8EDA  8D 06 20 STA STA $2006                    A:00 X:00 Y:03 P:26 SP:3B

<L008>  occurrences: 106  block_size:3  repeated_instances:2
sample block:
8E92  8D 06 20 STA STA $2006                    A:23 X:00 Y:00 P:24 SP:3B
8E95  C8       INY                              A:23 X:00 Y:00 P:24 SP:3B
8E96  B1 00    LDA LDA ($00),Y                  A:23 X:00 Y:01 P:24 SP:3B

<L003>  occurrences: 238  block_size:12  repeated_instances:3
sample block:
8EA0  AD 78 07 LDA LDA $0778                    A:02 X:00 Y:02 P:24 SP:3A
8EA3  09 04    ORA ORA #$04                     A:10 X:00 Y:02 P:24 SP:3A
8EA5  B0 02    BCS BCS #$02                     A:14 X:00 Y:02 P:24 SP:3A
8EA7  29 FB    AND AND #$FB                     A:14 X:00 Y:02 P:24 SP:3A
8EA9  20 ED 8E JSR JSR $8EED                    A:10 X:00 Y:02 P:24 SP:3A
8EED  8D 00 20 STA STA $2000                    A:10 X:00 Y:02 P:24 SP:38
8EF0  8D 78 07 STA STA $0778                    A:10 X:00 Y:02 P:24 SP:38
8EF3  60       RTS                              A:10 X:00 Y:02 P:24 SP:38
8EAC  68       PLA                              A:10 X:00 Y:02 P:24 SP:3A
8EAD  0A       ASL A                            A:02 X:00 Y:02 P:24 SP:3B
8EAE  90 03    BCC BCC #$03                     A:04 X:00 Y:02 P:24 SP:3B
8EB3  4A       LSR A                            A:04 X:00 Y:02 P:24 SP:3B

<L002>  occurrences: 396  block_size:2  repeated_instances:2
sample block:
8EE4  D0 AC    BNE BNE #$AC                     A:00 X:00 Y:00 P:26 SP:3B
8EE6  8D 05 20 STA STA $2005                    A:00 X:00 Y:00 P:26 SP:3B

<L001>  occurrences: 791  block_size:1  repeated_instances:2
sample block:
80CB  E0 06    CPX CPX #$06                     A:00 X:00 Y:00 P:26 SP:3D

<L022>  occurrences: 34  block_size:1  repeated_instances:2
sample block:
80D5  9D 00 03 STA STA $0300,X                  A:00 X:00 Y:00 P:26 SP:3D

<L001>  occurrences: 791  block_size:1  repeated_instances:2
sample block:
80DB  8D 73 07 STA STA $0773                    A:00 X:00 Y:00 P:26 SP:3D

<L010>  occurrences: 80  block_size:6  repeated_instances:2
sample block:
8FA1  BD DD 07 LDA LDA $07DD,X                  A:00 X:05 Y:05 P:25 SP:39
8FA4  F9 D7 07 SBC SBC $07D7,Y                  A:00 X:05 Y:05 P:27 SP:39
8FA7  CA       DEX                              A:00 X:05 Y:05 P:27 SP:39
8FA8  88       DEY                              A:00 X:04 Y:05 P:25 SP:39
8FA9  10 F6    BPL BPL #$F6                     A:00 X:04 Y:04 P:25 SP:39
8FA1  BD DD 07 LDA LDA $07DD,X                  A:00 X:04 Y:04 P:25 SP:39

<L005>  occurrences: 138  block_size:3  repeated_instances:2
sample block:
8FAF  BD DD 07 LDA LDA $07DD,X                  A:00 X:00 Y:00 P:27 SP:39
8FB2  99 D7 07 STA STA $07D7,Y                  A:00 X:00 Y:00 P:27 SP:39
8FB5  E8       INX                              A:00 X:00 Y:00 P:27 SP:39

<L010>  occurrences: 80  block_size:6  repeated_instances:2
sample block:
8FA1  BD DD 07 LDA LDA $07DD,X                  A:00 X:0B Y:05 P:25 SP:3B
8FA4  F9 D7 07 SBC SBC $07D7,Y                  A:00 X:0B Y:05 P:27 SP:3B
8FA7  CA       DEX                              A:00 X:0B Y:05 P:27 SP:3B
8FA8  88       DEY                              A:00 X:0A Y:05 P:25 SP:3B
8FA9  10 F6    BPL BPL #$F6                     A:00 X:0A Y:04 P:25 SP:3B
8FA1  BD DD 07 LDA LDA $07DD,X                  A:00 X:0A Y:04 P:25 SP:3B

<L005>  occurrences: 138  block_size:3  repeated_instances:2
sample block:
8FAF  BD DD 07 LDA LDA $07DD,X                  A:00 X:06 Y:00 P:27 SP:3B
8FB2  99 D7 07 STA STA $07D7,Y                  A:00 X:06 Y:00 P:27 SP:3B
8FB5  E8       INX                              A:00 X:06 Y:00 P:27 SP:3B

<L016>  occurrences: 50  block_size:4  repeated_instances:3
sample block:
810E  BD 80 07 LDA LDA $0780,X                  A:00 X:14 Y:06 P:24 SP:3D
8111  F0 03    BEQ BEQ #$03                     A:00 X:14 Y:06 P:26 SP:3D
8116  CA       DEX                              A:00 X:14 Y:06 P:26 SP:3D
8117  10 F5    BPL BPL #$F5                     A:00 X:13 Y:06 P:24 SP:3D

<L015>  occurrences: 51  block_size:4  repeated_instances:3
sample block:
8131  7E A7 07 ROR ROR $07A7,X                  A:02 X:00 Y:07 P:25 SP:3D
8134  E8       INX                              A:02 X:00 Y:07 P:A4 SP:3D
8135  88       DEY                              A:02 X:01 Y:07 P:24 SP:3D
8136  D0 F9    BNE BNE #$F9                     A:02 X:01 Y:06 P:24 SP:3D

<L023>  occurrences: 34  block_size:2  repeated_instances:2
sample block:
815C  AD 3F 07 LDA LDA $073F                    A:00 X:07 Y:00 P:26 SP:3D
815F  8D 05 20 STA STA $2005                    A:00 X:07 Y:00 P:26 SP:3D

<L006>  occurrences: 114  block_size:2  repeated_instances:2
sample block:
8E06  68       PLA                              A:00 X:07 Y:00 P:26 SP:38
8E07  85 04    STA STA $04                      A:17 X:07 Y:00 P:24 SP:39

<L007>  occurrences: 114  block_size:3  repeated_instances:2
sample block:
8E0C  C8       INY                              A:82 X:07 Y:00 P:A4 SP:3A
8E0D  B1 04    LDA LDA ($04),Y                  A:82 X:07 Y:01 P:24 SP:3A
8E0F  85 06    STA STA $06                      A:31 X:07 Y:01 P:24 SP:3A

<L006>  occurrences: 114  block_size:2  repeated_instances:2
sample block:
8E06  68       PLA                              A:02 X:07 Y:02 P:24 SP:38
8E07  85 04    STA STA $04                      A:36 X:07 Y:02 P:24 SP:39

<L007>  occurrences: 114  block_size:3  repeated_instances:2
sample block:
8E0C  C8       INY                              A:82 X:07 Y:02 P:A4 SP:3A
8E0D  B1 04    LDA LDA ($04),Y                  A:82 X:07 Y:03 P:24 SP:3A
8E0F  85 06    STA STA $06                      A:67 X:07 Y:03 P:24 SP:3A

<L006>  occurrences: 114  block_size:2  repeated_instances:2
sample block:
8E06  68       PLA                              A:06 X:07 Y:06 P:24 SP:38
8E07  85 04    STA STA $04                      A:6C X:07 Y:06 P:24 SP:39

<L007>  occurrences: 114  block_size:3  repeated_instances:2
sample block:
8E0C  C8       INY                              A:85 X:07 Y:06 P:A4 SP:3A
8E0D  B1 04    LDA LDA ($04),Y                  A:85 X:07 Y:07 P:24 SP:3A
8E0F  85 06    STA STA $06                      A:5A X:07 Y:07 P:24 SP:3A

<L001>  occurrences: 791  block_size:1  repeated_instances:3
sample block:
BC30  AC 53 07 LDY LDY $0753                    A:86 X:07 Y:08 P:A4 SP:38

<L054>  occurrences: 6  block_size:2  repeated_instances:2
sample block:
8F28  9D 01 03 STA STA $0301,X                  A:20 X:00 Y:06 P:25 SP:33
8F2B  B9 F4 8E LDA LDA $8EF4,Y                  A:20 X:00 Y:06 P:25 SP:33

<L028>  occurrences: 25  block_size:1  repeated_instances:3
sample block:
8F58  E8       INX                              A:00 X:02 Y:18 P:27 SP:34

<L024>  occurrences: 34  block_size:1  repeated_instances:2
sample block:
8F0D  4A       LSR A                            A:02 X:05 Y:18 P:25 SP:36

<L054>  occurrences: 6  block_size:2  repeated_instances:2
sample block:
8F28  9D 01 03 STA STA $0301,X                  A:20 X:05 Y:02 P:25 SP:35
8F2B  B9 F4 8E LDA LDA $8EF4,Y                  A:20 X:05 Y:02 P:25 SP:35

<L028>  occurrences: 25  block_size:1  repeated_instances:3
sample block:
8F58  E8       INX                              A:00 X:0B Y:0C P:27 SP:36

<L005>  occurrences: 138  block_size:3  repeated_instances:2
sample block:
BC39  AC 00 03 LDY LDY $0300                    A:00 X:0E Y:0C P:25 SP:38
BC3C  B9 FB 02 LDA LDA $02FB,Y                  A:00 X:0E Y:0E P:25 SP:38
BC3F  D0 05    BNE BNE #$05                     A:00 X:0E Y:0E P:27 SP:38

<L062>  occurrences: 3  block_size:2  repeated_instances:3
sample block:
8660  A9 20    LDA LDA #$20                     A:24 X:0E Y:0E P:25 SP:3A
8662  9D 01 03 STA STA $0301,X                  A:20 X:0E Y:0E P:25 SP:3A

<L069>  occurrences: 2  block_size:6  repeated_instances:2
sample block:
866F  AC 5F 07 LDY LDY $075F                    A:03 X:0E Y:0E P:25 SP:3A
8672  C8       INY                              A:03 X:0E Y:00 P:27 SP:3A
8673  98       TYA                              A:03 X:0E Y:01 P:25 SP:3A
8674  9D 04 03 STA STA $0304,X                  A:01 X:0E Y:01 P:25 SP:3A
8677  A9 28    LDA LDA #$28                     A:01 X:0E Y:01 P:25 SP:3A
8679  9D 05 03 STA STA $0305,X                  A:28 X:0E Y:01 P:25 SP:3A

<L005>  occurrences: 138  block_size:3  repeated_instances:2
sample block:
FFF7  1E 1E 1F ASL ASL $1F1E,X                  A:90 X:0E Y:01 P:A4 SP:40
FFFA  82 80    *NOP *NOP #$80                   A:90 X:0E Y:01 P:26 SP:40
FFFC  00       BRK                              A:90 X:0E Y:01 P:26 SP:40

<L011>  occurrences: 64  block_size:2  repeated_instances:2
sample block:
8085  29 7F    AND AND #$7F                     A:10 X:0E Y:01 P:24 SP:D9
8087  8D 78 07 STA STA $0778                    A:10 X:0E Y:01 P:24 SP:D9

<L011>  occurrences: 64  block_size:2  repeated_instances:2
sample block:
8097  D0 05    BNE BNE #$05                     A:00 X:0E Y:01 P:24 SP:D9
809E  8D 79 07 STA STA $0779                    A:00 X:0E Y:01 P:24 SP:D9

<L002>  occurrences: 396  block_size:2  repeated_instances:2
sample block:
80AB  20 E6 8E JSR JSR $8EE6                    A:00 X:80 Y:01 P:26 SP:D9
8EE6  8D 05 20 STA STA $2005                    A:00 X:80 Y:01 P:26 SP:D7

<L001>  occurrences: 791  block_size:1  repeated_instances:2
sample block:
80BC  85 00    STA STA $00                      A:01 X:00 Y:01 P:24 SP:D9

<L002>  occurrences: 396  block_size:2  repeated_instances:2
sample block:
8EDD  AE 02 20 LDX LDX $2002                    A:03 X:00 Y:01 P:24 SP:D7
8EE0  A0 00    LDY LDY #$00                     A:03 X:00 Y:01 P:26 SP:D7

<L008>  occurrences: 106  block_size:3  repeated_instances:2
sample block:
8E92  8D 06 20 STA STA $2006                    A:20 X:00 Y:00 P:24 SP:D7
8E95  C8       INY                              A:20 X:00 Y:00 P:24 SP:D7
8E96  B1 00    LDA LDA ($00),Y                  A:20 X:00 Y:01 P:24 SP:D7

<L003>  occurrences: 238  block_size:12  repeated_instances:3
sample block:
8EA0  AD 78 07 LDA LDA $0778                    A:04 X:00 Y:02 P:24 SP:D6
8EA3  09 04    ORA ORA #$04                     A:10 X:00 Y:02 P:24 SP:D6
8EA5  B0 02    BCS BCS #$02                     A:14 X:00 Y:02 P:24 SP:D6
8EA7  29 FB    AND AND #$FB                     A:14 X:00 Y:02 P:24 SP:D6
8EA9  20 ED 8E JSR JSR $8EED                    A:10 X:00 Y:02 P:24 SP:D6
8EED  8D 00 20 STA STA $2000                    A:10 X:00 Y:02 P:24 SP:D4
8EF0  8D 78 07 STA STA $0778                    A:10 X:00 Y:02 P:24 SP:D4
8EF3  60       RTS                              A:10 X:00 Y:02 P:24 SP:D4
8EAC  68       PLA                              A:10 X:00 Y:02 P:24 SP:D6
8EAD  0A       ASL A                            A:04 X:00 Y:02 P:24 SP:D7
8EAE  90 03    BCC BCC #$03                     A:08 X:00 Y:02 P:24 SP:D7
8EB3  4A       LSR A                            A:08 X:00 Y:02 P:24 SP:D7

<L005>  occurrences: 138  block_size:3  repeated_instances:2
sample block:
8ED4  8D 06 20 STA STA $2006                    A:00 X:00 Y:04 P:26 SP:D7
8ED7  8D 06 20 STA STA $2006                    A:00 X:00 Y:04 P:26 SP:D7
8EDA  8D 06 20 STA STA $2006                    A:00 X:00 Y:04 P:26 SP:D7

<L008>  occurrences: 106  block_size:3  repeated_instances:2
sample block:
8E92  8D 06 20 STA STA $2006                    A:20 X:00 Y:00 P:24 SP:D7
8E95  C8       INY                              A:20 X:00 Y:00 P:24 SP:D7
8E96  B1 00    LDA LDA ($00),Y                  A:20 X:00 Y:01 P:24 SP:D7

<L032>  occurrences: 22  block_size:11  repeated_instances:2
sample block:
8EA0  AD 78 07 LDA LDA $0778                    A:0C X:00 Y:02 P:24 SP:D6
8EA3  09 04    ORA ORA #$04                     A:10 X:00 Y:02 P:24 SP:D6
8EA5  B0 02    BCS BCS #$02                     A:14 X:00 Y:02 P:24 SP:D6
8EA7  29 FB    AND AND #$FB                     A:14 X:00 Y:02 P:24 SP:D6
8EA9  20 ED 8E JSR JSR $8EED                    A:10 X:00 Y:02 P:24 SP:D6
8EED  8D 00 20 STA STA $2000                    A:10 X:00 Y:02 P:24 SP:D4
8EF0  8D 78 07 STA STA $0778                    A:10 X:00 Y:02 P:24 SP:D4
8EF3  60       RTS                              A:10 X:00 Y:02 P:24 SP:D4
8EAC  68       PLA                              A:10 X:00 Y:02 P:24 SP:D6
8EAD  0A       ASL A                            A:0C X:00 Y:02 P:24 SP:D7
8EAE  90 03    BCC BCC #$03                     A:18 X:00 Y:02 P:24 SP:D7

<L003>  occurrences: 238  block_size:12  repeated_instances:2
sample block:
8EB9  B1 00    LDA LDA ($00),Y                  A:24 X:05 Y:04 P:24 SP:D7
8EBB  8D 07 20 STA STA $2007                    A:00 X:05 Y:04 P:26 SP:D7
8EBE  CA       DEX                              A:00 X:05 Y:04 P:26 SP:D7
8EBF  D0 F5    BNE BNE #$F5                     A:00 X:04 Y:04 P:24 SP:D7
8EB6  B0 01    BCS BCS #$01                     A:00 X:04 Y:04 P:24 SP:D7
8EB8  C8       INY                              A:00 X:04 Y:04 P:24 SP:D7
8EB9  B1 00    LDA LDA ($00),Y                  A:00 X:01 Y:08 P:24 SP:D7
8EBB  8D 07 20 STA STA $2007                    A:00 X:01 Y:08 P:26 SP:D7
8EBE  CA       DEX                              A:00 X:01 Y:08 P:26 SP:D7
8EBF  D0 F5    BNE BNE #$F5                     A:00 X:00 Y:08 P:26 SP:D7
8EC1  38       SEC                              A:00 X:00 Y:08 P:26 SP:D7
8EC2  98       TYA                              A:00 X:00 Y:08 P:27 SP:D7

<L001>  occurrences: 791  block_size:1  repeated_instances:3
sample block:
8EE0  A0 00    LDY LDY #$00                     A:00 X:00 Y:08 P:26 SP:D7

<L008>  occurrences: 106  block_size:3  repeated_instances:2
sample block:
8E92  8D 06 20 STA STA $2006                    A:20 X:00 Y:00 P:24 SP:D7
8E95  C8       INY                              A:20 X:00 Y:00 P:24 SP:D7
8E96  B1 00    LDA LDA ($00),Y                  A:20 X:00 Y:01 P:24 SP:D7

<L003>  occurrences: 238  block_size:12  repeated_instances:4
sample block:
8EA0  AD 78 07 LDA LDA $0778                    A:06 X:00 Y:02 P:24 SP:D6
8EA3  09 04    ORA ORA #$04                     A:10 X:00 Y:02 P:24 SP:D6
8EA5  B0 02    BCS BCS #$02                     A:14 X:00 Y:02 P:24 SP:D6
8EA7  29 FB    AND AND #$FB                     A:14 X:00 Y:02 P:24 SP:D6
8EA9  20 ED 8E JSR JSR $8EED                    A:10 X:00 Y:02 P:24 SP:D6
8EED  8D 00 20 STA STA $2000                    A:10 X:00 Y:02 P:24 SP:D4
8EF0  8D 78 07 STA STA $0778                    A:10 X:00 Y:02 P:24 SP:D4
8EF3  60       RTS                              A:10 X:00 Y:02 P:24 SP:D4
8EAC  68       PLA                              A:10 X:00 Y:02 P:24 SP:D6
8EAD  0A       ASL A                            A:06 X:00 Y:02 P:24 SP:D7
8EAE  90 03    BCC BCC #$03                     A:0C X:00 Y:02 P:24 SP:D7
8EB3  4A       LSR A                            A:0C X:00 Y:02 P:24 SP:D7

<L002>  occurrences: 396  block_size:2  repeated_instances:2
sample block:
8EE4  D0 AC    BNE BNE #$AC                     A:00 X:00 Y:00 P:26 SP:D7
8EE6  8D 05 20 STA STA $2005                    A:00 X:00 Y:00 P:26 SP:D7

<L001>  occurrences: 791  block_size:1  repeated_instances:2
sample block:
80CB  E0 06    CPX CPX #$06                     A:00 X:00 Y:00 P:26 SP:D9

<L022>  occurrences: 34  block_size:1  repeated_instances:2
sample block:
80D5  9D 00 03 STA STA $0300,X                  A:00 X:00 Y:00 P:26 SP:D9

<L001>  occurrences: 791  block_size:1  repeated_instances:2
sample block:
80DB  8D 73 07 STA STA $0773                    A:00 X:00 Y:00 P:26 SP:D9

<L010>  occurrences: 80  block_size:6  repeated_instances:2
sample block:
8FA1  BD DD 07 LDA LDA $07DD,X                  A:00 X:05 Y:05 P:25 SP:D5
8FA4  F9 D7 07 SBC SBC $07D7,Y                  A:00 X:05 Y:05 P:27 SP:D5
8FA7  CA       DEX                              A:00 X:05 Y:05 P:27 SP:D5
8FA8  88       DEY                              A:00 X:04 Y:05 P:25 SP:D5
8FA9  10 F6    BPL BPL #$F6                     A:00 X:04 Y:04 P:25 SP:D5
8FA1  BD DD 07 LDA LDA $07DD,X                  A:00 X:04 Y:04 P:25 SP:D5

<L005>  occurrences: 138  block_size:3  repeated_instances:2
sample block:
8FAF  BD DD 07 LDA LDA $07DD,X                  A:00 X:00 Y:00 P:27 SP:D5
8FB2  99 D7 07 STA STA $07D7,Y                  A:00 X:00 Y:00 P:27 SP:D5
8FB5  E8       INX                              A:00 X:00 Y:00 P:27 SP:D5

<L010>  occurrences: 80  block_size:6  repeated_instances:2
sample block:
8FA1  BD DD 07 LDA LDA $07DD,X                  A:00 X:0B Y:05 P:25 SP:D7
8FA4  F9 D7 07 SBC SBC $07D7,Y                  A:00 X:0B Y:05 P:27 SP:D7
8FA7  CA       DEX                              A:00 X:0B Y:05 P:27 SP:D7
8FA8  88       DEY                              A:00 X:0A Y:05 P:25 SP:D7
8FA9  10 F6    BPL BPL #$F6                     A:00 X:0A Y:04 P:25 SP:D7
8FA1  BD DD 07 LDA LDA $07DD,X                  A:00 X:0A Y:04 P:25 SP:D7

<L005>  occurrences: 138  block_size:3  repeated_instances:2
sample block:
8FAF  BD DD 07 LDA LDA $07DD,X                  A:00 X:06 Y:00 P:27 SP:D7
8FB2  99 D7 07 STA STA $07D7,Y                  A:00 X:06 Y:00 P:27 SP:D7
8FB5  E8       INX                              A:00 X:06 Y:00 P:27 SP:D7

<L016>  occurrences: 50  block_size:4  repeated_instances:3
sample block:
810E  BD 80 07 LDA LDA $0780,X                  A:00 X:14 Y:06 P:24 SP:D9
8111  F0 03    BEQ BEQ #$03                     A:00 X:14 Y:06 P:26 SP:D9
8116  CA       DEX                              A:00 X:14 Y:06 P:26 SP:D9
8117  10 F5    BPL BPL #$F5                     A:00 X:13 Y:06 P:24 SP:D9

<L015>  occurrences: 51  block_size:4  repeated_instances:3
sample block:
8131  7E A7 07 ROR ROR $07A7,X                  A:00 X:00 Y:07 P:26 SP:D9
8134  E8       INX                              A:00 X:00 Y:07 P:25 SP:D9
8135  88       DEY                              A:00 X:01 Y:07 P:25 SP:D9
8136  D0 F9    BNE BNE #$F9                     A:00 X:01 Y:06 P:25 SP:D9

<L023>  occurrences: 34  block_size:2  repeated_instances:2
sample block:
815C  AD 3F 07 LDA LDA $073F                    A:00 X:07 Y:00 P:26 SP:D9
815F  8D 05 20 STA STA $2005                    A:00 X:07 Y:00 P:26 SP:D9

<L006>  occurrences: 114  block_size:2  repeated_instances:2
sample block:
8E06  68       PLA                              A:00 X:07 Y:00 P:26 SP:D4
8E07  85 04    STA STA $04                      A:17 X:07 Y:00 P:24 SP:D5

<L007>  occurrences: 114  block_size:3  repeated_instances:2
sample block:
8E0C  C8       INY                              A:82 X:07 Y:00 P:A4 SP:D6
8E0D  B1 04    LDA LDA ($04),Y                  A:82 X:07 Y:01 P:24 SP:D6
8E0F  85 06    STA STA $06                      A:31 X:07 Y:01 P:24 SP:D6

<L006>  occurrences: 114  block_size:2  repeated_instances:2
sample block:
8E06  68       PLA                              A:02 X:07 Y:02 P:24 SP:D4
8E07  85 04    STA STA $04                      A:36 X:07 Y:02 P:24 SP:D5

<L007>  occurrences: 114  block_size:3  repeated_instances:2
sample block:
8E0C  C8       INY                              A:82 X:07 Y:02 P:A4 SP:D6
8E0D  B1 04    LDA LDA ($04),Y                  A:82 X:07 Y:03 P:24 SP:D6
8E0F  85 06    STA STA $06                      A:67 X:07 Y:03 P:24 SP:D6

<L006>  occurrences: 114  block_size:2  repeated_instances:2
sample block:
8E06  68       PLA                              A:08 X:07 Y:08 P:24 SP:D4
8E07  85 04    STA STA $04                      A:6C X:07 Y:08 P:24 SP:D5

<L007>  occurrences: 114  block_size:3  repeated_instances:2
sample block:
8E0C  C8       INY                              A:85 X:07 Y:08 P:A4 SP:D6
8E0D  B1 04    LDA LDA ($04),Y                  A:85 X:07 Y:09 P:24 SP:D6
8E0F  85 06    STA STA $06                      A:93 X:07 Y:09 P:A4 SP:D6

<L026>  occurrences: 30  block_size:5  repeated_instances:2
sample block:
FFFA  82 80    *NOP *NOP #$80                   A:90 X:07 Y:0A P:26 SP:DC
FFFC  00       BRK                              A:90 X:07 Y:0A P:26 SP:DC
FFF0  19 19 1A ORA ORA $1A19,Y                  A:90 X:07 Y:0A P:26 SP:D9
FFF3  1A       *NOP                             A:90 X:07 Y:0A P:A4 SP:D9
FFF4  1C 1D 1D *NOP *NOP $1D1D,X                A:90 X:07 Y:0A P:A4 SP:D9

<L011>  occurrences: 64  block_size:2  repeated_instances:2
sample block:
8085  29 7F    AND AND #$7F                     A:10 X:07 Y:0A P:24 SP:8B
8087  8D 78 07 STA STA $0778                    A:10 X:07 Y:0A P:24 SP:8B

<L011>  occurrences: 64  block_size:2  repeated_instances:2
sample block:
8097  D0 05    BNE BNE #$05                     A:00 X:07 Y:01 P:24 SP:8B
809E  8D 79 07 STA STA $0779                    A:00 X:07 Y:01 P:24 SP:8B

<L002>  occurrences: 396  block_size:2  repeated_instances:2
sample block:
80AB  20 E6 8E JSR JSR $8EE6                    A:00 X:80 Y:01 P:26 SP:8B
8EE6  8D 05 20 STA STA $2005                    A:00 X:80 Y:01 P:26 SP:89

<L001>  occurrences: 791  block_size:1  repeated_instances:2
sample block:
80BC  85 00    STA STA $00                      A:01 X:00 Y:01 P:24 SP:8B

<L005>  occurrences: 138  block_size:3  repeated_instances:2
sample block:
8EDD  AE 02 20 LDX LDX $2002                    A:03 X:00 Y:01 P:24 SP:89
8EE0  A0 00    LDY LDY #$00                     A:03 X:00 Y:01 P:26 SP:89
8EE2  B1 00    LDA LDA ($00),Y                  A:03 X:00 Y:00 P:26 SP:89

<L001>  occurrences: 791  block_size:1  repeated_instances:2
sample block:
80CB  E0 06    CPX CPX #$06                     A:00 X:00 Y:00 P:26 SP:8B

<L022>  occurrences: 34  block_size:1  repeated_instances:2
sample block:
80D5  9D 00 03 STA STA $0300,X                  A:00 X:00 Y:00 P:26 SP:8B

<L001>  occurrences: 791  block_size:1  repeated_instances:2
sample block:
80DB  8D 73 07 STA STA $0773                    A:00 X:00 Y:00 P:26 SP:8B

<L010>  occurrences: 80  block_size:6  repeated_instances:2
sample block:
8FA1  BD DD 07 LDA LDA $07DD,X                  A:00 X:05 Y:05 P:25 SP:87
8FA4  F9 D7 07 SBC SBC $07D7,Y                  A:00 X:05 Y:05 P:27 SP:87
8FA7  CA       DEX                              A:00 X:05 Y:05 P:27 SP:87
8FA8  88       DEY                              A:00 X:04 Y:05 P:25 SP:87
8FA9  10 F6    BPL BPL #$F6                     A:00 X:04 Y:04 P:25 SP:87
8FA1  BD DD 07 LDA LDA $07DD,X                  A:00 X:04 Y:04 P:25 SP:87

<L005>  occurrences: 138  block_size:3  repeated_instances:2
sample block:
8FAF  BD DD 07 LDA LDA $07DD,X                  A:00 X:00 Y:00 P:27 SP:87
8FB2  99 D7 07 STA STA $07D7,Y                  A:00 X:00 Y:00 P:27 SP:87
8FB5  E8       INX                              A:00 X:00 Y:00 P:27 SP:87

<L010>  occurrences: 80  block_size:6  repeated_instances:2
sample block:
8FA1  BD DD 07 LDA LDA $07DD,X                  A:00 X:0B Y:05 P:25 SP:89
8FA4  F9 D7 07 SBC SBC $07D7,Y                  A:00 X:0B Y:05 P:27 SP:89
8FA7  CA       DEX                              A:00 X:0B Y:05 P:27 SP:89
8FA8  88       DEY                              A:00 X:0A Y:05 P:25 SP:89
8FA9  10 F6    BPL BPL #$F6                     A:00 X:0A Y:04 P:25 SP:89
8FA1  BD DD 07 LDA LDA $07DD,X                  A:00 X:0A Y:04 P:25 SP:89

<L005>  occurrences: 138  block_size:3  repeated_instances:2
sample block:
8FAF  BD DD 07 LDA LDA $07DD,X                  A:00 X:06 Y:00 P:27 SP:89
8FB2  99 D7 07 STA STA $07D7,Y                  A:00 X:06 Y:00 P:27 SP:89
8FB5  E8       INX                              A:00 X:06 Y:00 P:27 SP:89

<L016>  occurrences: 50  block_size:4  repeated_instances:3
sample block:
810E  BD 80 07 LDA LDA $0780,X                  A:00 X:14 Y:06 P:24 SP:8B
8111  F0 03    BEQ BEQ #$03                     A:00 X:14 Y:06 P:26 SP:8B
8116  CA       DEX                              A:00 X:14 Y:06 P:26 SP:8B
8117  10 F5    BPL BPL #$F5                     A:00 X:13 Y:06 P:24 SP:8B

<L015>  occurrences: 51  block_size:4  repeated_instances:3
sample block:
8131  7E A7 07 ROR ROR $07A7,X                  A:02 X:00 Y:07 P:25 SP:8B
8134  E8       INX                              A:02 X:00 Y:07 P:A4 SP:8B
8135  88       DEY                              A:02 X:01 Y:07 P:24 SP:8B
8136  D0 F9    BNE BNE #$F9                     A:02 X:01 Y:06 P:24 SP:8B

<L023>  occurrences: 34  block_size:2  repeated_instances:2
sample block:
815C  AD 3F 07 LDA LDA $073F                    A:00 X:07 Y:00 P:26 SP:8B
815F  8D 05 20 STA STA $2005                    A:00 X:07 Y:00 P:26 SP:8B

<L006>  occurrences: 114  block_size:2  repeated_instances:2
sample block:
8E06  68       PLA                              A:00 X:07 Y:00 P:26 SP:86
8E07  85 04    STA STA $04                      A:17 X:07 Y:00 P:24 SP:87

<L007>  occurrences: 114  block_size:3  repeated_instances:2
sample block:
8E0C  C8       INY                              A:82 X:07 Y:00 P:A4 SP:88
8E0D  B1 04    LDA LDA ($04),Y                  A:82 X:07 Y:01 P:24 SP:88
8E0F  85 06    STA STA $06                      A:31 X:07 Y:01 P:24 SP:88

<L006>  occurrences: 114  block_size:2  repeated_instances:2
sample block:
8E06  68       PLA                              A:02 X:07 Y:02 P:24 SP:86
8E07  85 04    STA STA $04                      A:36 X:07 Y:02 P:24 SP:87

<L007>  occurrences: 114  block_size:3  repeated_instances:2
sample block:
8E0C  C8       INY                              A:82 X:07 Y:02 P:A4 SP:88
8E0D  B1 04    LDA LDA ($04),Y                  A:82 X:07 Y:03 P:24 SP:88
8E0F  85 06    STA STA $06                      A:67 X:07 Y:03 P:24 SP:88

<L006>  occurrences: 114  block_size:2  repeated_instances:2
sample block:
8E06  68       PLA                              A:0C X:07 Y:0C P:24 SP:86
8E07  85 04    STA STA $04                      A:6C X:07 Y:0C P:24 SP:87

<L007>  occurrences: 114  block_size:3  repeated_instances:2
sample block:
8E0C  C8       INY                              A:85 X:07 Y:0C P:A4 SP:88
8E0D  B1 04    LDA LDA ($04),Y                  A:85 X:07 Y:0D P:24 SP:88
8E0F  85 06    STA STA $06                      A:A8 X:07 Y:0D P:A4 SP:88

<L026>  occurrences: 30  block_size:5  repeated_instances:2
sample block:
FFF7  1E 1E 1F ASL ASL $1F1E,X                  A:90 X:07 Y:0E P:A4 SP:8E
FFFA  82 80    *NOP *NOP #$80                   A:90 X:07 Y:0E P:26 SP:8E
FFFC  00       BRK                              A:90 X:07 Y:0E P:26 SP:8E
FFF0  19 19 1A ORA ORA $1A19,Y                  A:90 X:07 Y:0E P:26 SP:8B
FFF3  1A       *NOP                             A:90 X:07 Y:0E P:A4 SP:8B

<L011>  occurrences: 64  block_size:2  repeated_instances:2
sample block:
8085  29 7F    AND AND #$7F                     A:10 X:07 Y:0E P:24 SP:FB
8087  8D 78 07 STA STA $0778                    A:10 X:07 Y:0E P:24 SP:FB

<L011>  occurrences: 64  block_size:2  repeated_instances:2
sample block:
8097  D0 05    BNE BNE #$05                     A:00 X:07 Y:01 P:24 SP:FB
809E  8D 79 07 STA STA $0779                    A:00 X:07 Y:01 P:24 SP:FB

<L002>  occurrences: 396  block_size:2  repeated_instances:2
sample block:
80AB  20 E6 8E JSR JSR $8EE6                    A:00 X:80 Y:01 P:26 SP:FB
8EE6  8D 05 20 STA STA $2005                    A:00 X:80 Y:01 P:26 SP:F9

<L001>  occurrences: 791  block_size:1  repeated_instances:2
sample block:
80BC  85 00    STA STA $00                      A:01 X:00 Y:01 P:24 SP:FB

<L005>  occurrences: 138  block_size:3  repeated_instances:2
sample block:
8EDD  AE 02 20 LDX LDX $2002                    A:03 X:00 Y:01 P:24 SP:F9
8EE0  A0 00    LDY LDY #$00                     A:03 X:00 Y:01 P:26 SP:F9
8EE2  B1 00    LDA LDA ($00),Y                  A:03 X:00 Y:00 P:26 SP:F9

<L001>  occurrences: 791  block_size:1  repeated_instances:2
sample block:
80CB  E0 06    CPX CPX #$06                     A:00 X:00 Y:00 P:26 SP:FB

<L022>  occurrences: 34  block_size:1  repeated_instances:2
sample block:
80D5  9D 00 03 STA STA $0300,X                  A:00 X:00 Y:00 P:26 SP:FB

<L001>  occurrences: 791  block_size:1  repeated_instances:2
sample block:
80DB  8D 73 07 STA STA $0773                    A:00 X:00 Y:00 P:26 SP:FB

<L010>  occurrences: 80  block_size:6  repeated_instances:2
sample block:
8FA1  BD DD 07 LDA LDA $07DD,X                  A:00 X:05 Y:05 P:25 SP:F7
8FA4  F9 D7 07 SBC SBC $07D7,Y                  A:00 X:05 Y:05 P:27 SP:F7
8FA7  CA       DEX                              A:00 X:05 Y:05 P:27 SP:F7
8FA8  88       DEY                              A:00 X:04 Y:05 P:25 SP:F7
8FA9  10 F6    BPL BPL #$F6                     A:00 X:04 Y:04 P:25 SP:F7
8FA1  BD DD 07 LDA LDA $07DD,X                  A:00 X:04 Y:04 P:25 SP:F7

<L005>  occurrences: 138  block_size:3  repeated_instances:2
sample block:
8FAF  BD DD 07 LDA LDA $07DD,X                  A:00 X:00 Y:00 P:27 SP:F7
8FB2  99 D7 07 STA STA $07D7,Y                  A:00 X:00 Y:00 P:27 SP:F7
8FB5  E8       INX                              A:00 X:00 Y:00 P:27 SP:F7

<L010>  occurrences: 80  block_size:6  repeated_instances:2
sample block:
8FA1  BD DD 07 LDA LDA $07DD,X                  A:00 X:0B Y:05 P:25 SP:F9
8FA4  F9 D7 07 SBC SBC $07D7,Y                  A:00 X:0B Y:05 P:27 SP:F9
8FA7  CA       DEX                              A:00 X:0B Y:05 P:27 SP:F9
8FA8  88       DEY                              A:00 X:0A Y:05 P:25 SP:F9
8FA9  10 F6    BPL BPL #$F6                     A:00 X:0A Y:04 P:25 SP:F9
8FA1  BD DD 07 LDA LDA $07DD,X                  A:00 X:0A Y:04 P:25 SP:F9

<L005>  occurrences: 138  block_size:3  repeated_instances:2
sample block:
8FAF  BD DD 07 LDA LDA $07DD,X                  A:00 X:06 Y:00 P:27 SP:F9
8FB2  99 D7 07 STA STA $07D7,Y                  A:00 X:06 Y:00 P:27 SP:F9
8FB5  E8       INX                              A:00 X:06 Y:00 P:27 SP:F9

<L016>  occurrences: 50  block_size:4  repeated_instances:3
sample block:
810E  BD 80 07 LDA LDA $0780,X                  A:00 X:14 Y:06 P:24 SP:FB
8111  F0 03    BEQ BEQ #$03                     A:00 X:14 Y:06 P:26 SP:FB
8116  CA       DEX                              A:00 X:14 Y:06 P:26 SP:FB
8117  10 F5    BPL BPL #$F5                     A:00 X:13 Y:06 P:24 SP:FB

<L015>  occurrences: 51  block_size:4  repeated_instances:3
sample block:
8131  7E A7 07 ROR ROR $07A7,X                  A:02 X:00 Y:07 P:25 SP:FB
8134  E8       INX                              A:02 X:00 Y:07 P:A5 SP:FB
8135  88       DEY                              A:02 X:01 Y:07 P:25 SP:FB
8136  D0 F9    BNE BNE #$F9                     A:02 X:01 Y:06 P:25 SP:FB

<L023>  occurrences: 34  block_size:2  repeated_instances:2
sample block:
815C  AD 3F 07 LDA LDA $073F                    A:00 X:07 Y:00 P:26 SP:FB
815F  8D 05 20 STA STA $2005                    A:00 X:07 Y:00 P:26 SP:FB

<L006>  occurrences: 114  block_size:2  repeated_instances:2
sample block:
8E06  68       PLA                              A:00 X:07 Y:00 P:26 SP:F6
8E07  85 04    STA STA $04                      A:17 X:07 Y:00 P:24 SP:F7

<L007>  occurrences: 114  block_size:3  repeated_instances:2
sample block:
8E0C  C8       INY                              A:82 X:07 Y:00 P:A4 SP:F8
8E0D  B1 04    LDA LDA ($04),Y                  A:82 X:07 Y:01 P:24 SP:F8
8E0F  85 06    STA STA $06                      A:31 X:07 Y:01 P:24 SP:F8

<L006>  occurrences: 114  block_size:2  repeated_instances:2
sample block:
8E06  68       PLA                              A:02 X:07 Y:02 P:24 SP:F6
8E07  85 04    STA STA $04                      A:36 X:07 Y:02 P:24 SP:F7

<L007>  occurrences: 114  block_size:3  repeated_instances:2
sample block:
8E0C  C8       INY                              A:82 X:07 Y:02 P:A4 SP:F8
8E0D  B1 04    LDA LDA ($04),Y                  A:82 X:07 Y:03 P:24 SP:F8
8E0F  85 06    STA STA $06                      A:67 X:07 Y:03 P:24 SP:F8

<L006>  occurrences: 114  block_size:2  repeated_instances:2
sample block:
8E06  68       PLA                              A:10 X:07 Y:10 P:24 SP:F6
8E07  85 04    STA STA $04                      A:6C X:07 Y:10 P:24 SP:F7

<L007>  occurrences: 114  block_size:3  repeated_instances:2
sample block:
8E0C  C8       INY                              A:85 X:07 Y:10 P:A4 SP:F8
8E0D  B1 04    LDA LDA ($04),Y                  A:85 X:07 Y:11 P:24 SP:F8
8E0F  85 06    STA STA $06                      A:E6 X:07 Y:11 P:A4 SP:F8

<L001>  occurrences: 791  block_size:1  repeated_instances:3
sample block:
92BA  88       DEY                              A:86 X:07 Y:08 P:24 SP:F6

<L006>  occurrences: 114  block_size:2  repeated_instances:2
sample block:
8E06  68       PLA                              A:0E X:07 Y:0E P:24 SP:F2
8E07  85 04    STA STA $04                      A:CA X:07 Y:0E P:A4 SP:F3

<L007>  occurrences: 114  block_size:3  repeated_instances:2
sample block:
8E0C  C8       INY                              A:92 X:07 Y:0E P:A4 SP:F4
8E0D  B1 04    LDA LDA ($04),Y                  A:92 X:07 Y:0F P:24 SP:F4
8E0F  85 06    STA STA $06                      A:FC X:07 Y:0F P:A4 SP:F4

<L001>  occurrences: 791  block_size:1  repeated_instances:2
sample block:
93FC  AD 28 07 LDA LDA $0728                    A:93 X:07 Y:10 P:A4 SP:F4

<L057>  occurrences: 4  block_size:6  repeated_instances:2
sample block:
9408  9D A1 06 STA STA $06A1,X                  A:00 X:0C Y:10 P:26 SP:F4
940B  CA       DEX                              A:00 X:0C Y:10 P:26 SP:F4
940C  10 FA    BPL BPL #$FA                     A:00 X:0B Y:10 P:24 SP:F4
9408  9D A1 06 STA STA $06A1,X                  A:00 X:0B Y:10 P:24 SP:F4
940B  CA       DEX                              A:00 X:0B Y:10 P:24 SP:F4
940C  10 FA    BPL BPL #$FA                     A:00 X:0A Y:10 P:24 SP:F4

<L041>  occurrences: 12  block_size:1  repeated_instances:2
sample block:
941F  0A       ASL A                            A:00 X:FF Y:02 P:A4 SP:F4

<L024>  occurrences: 34  block_size:1  repeated_instances:2
sample block:
943C  4A       LSR A                            A:97 X:12 Y:02 P:A4 SP:F4

<L033>  occurrences: 22  block_size:12  repeated_instances:8
sample block:
94AA  B9 8A C6 LDA LDA $C68A,Y                  A:00 X:00 Y:00 P:26 SP:F4
94AD  24 00    BIT BIT $00                      A:01 X:00 Y:00 P:24 SP:F4
94AF  F0 05    BEQ BEQ #$05                     A:01 X:00 Y:00 P:26 SP:F4
94B6  E8       INX                              A:01 X:00 Y:00 P:26 SP:F4
94B7  E0 0D    CPX CPX #$0D                     A:01 X:01 Y:00 P:24 SP:F4
94B9  F0 18    BEQ BEQ #$18                     A:01 X:01 Y:00 P:A4 SP:F4
94BB  AD 4E 07 LDA LDA $074E                    A:01 X:01 Y:00 P:A4 SP:F4
94BE  C9 02    CMP CMP #$02                     A:01 X:01 Y:00 P:24 SP:F4
94C0  D0 08    BNE BNE #$08                     A:01 X:01 Y:00 P:A4 SP:F4
94CA  C8       INY                              A:01 X:01 Y:00 P:A4 SP:F4
94CB  C0 08    CPY CPY #$08                     A:01 X:01 Y:01 P:24 SP:F4
94CD  D0 DB    BNE BNE #$DB                     A:01 X:01 Y:01 P:A4 SP:F4

<L033>  occurrences: 22  block_size:12  repeated_instances:3
sample block:
94AA  B9 8A C6 LDA LDA $C68A,Y                  A:00 X:08 Y:00 P:27 SP:F4
94AD  24 00    BIT BIT $00                      A:01 X:08 Y:00 P:25 SP:F4
94AF  F0 05    BEQ BEQ #$05                     A:01 X:08 Y:00 P:27 SP:F4
94B6  E8       INX                              A:01 X:08 Y:00 P:27 SP:F4
94B7  E0 0D    CPX CPX #$0D                     A:01 X:09 Y:00 P:25 SP:F4
94B9  F0 18    BEQ BEQ #$18                     A:01 X:09 Y:00 P:A4 SP:F4
94BB  AD 4E 07 LDA LDA $074E                    A:01 X:09 Y:00 P:A4 SP:F4
94BE  C9 02    CMP CMP #$02                     A:01 X:09 Y:00 P:24 SP:F4
94C0  D0 08    BNE BNE #$08                     A:01 X:09 Y:00 P:A4 SP:F4
94CA  C8       INY                              A:01 X:09 Y:00 P:A4 SP:F4
94CB  C0 08    CPY CPY #$08                     A:01 X:09 Y:01 P:24 SP:F4
94CD  D0 DB    BNE BNE #$DB                     A:01 X:09 Y:01 P:A4 SP:F4

<L001>  occurrences: 791  block_size:1  repeated_instances:3
sample block:
94AA  B9 8A C6 LDA LDA $C68A,Y                  A:01 X:0B Y:03 P:A4 SP:F4

<L001>  occurrences: 791  block_size:1  repeated_instances:2
sample block:
94BB  AD 4E 07 LDA LDA $074E                    A:54 X:0C Y:03 P:A4 SP:F4

<L005>  occurrences: 138  block_size:3  repeated_instances:2
sample block:
94CA  C8       INY                              A:01 X:0C Y:03 P:A4 SP:F4
94CB  C0 08    CPY CPY #$08                     A:01 X:0C Y:04 P:24 SP:F4
94CD  D0 DB    BNE BNE #$DB                     A:01 X:0C Y:04 P:A4 SP:F4

<L047>  occurrences: 9  block_size:1  repeated_instances:2
sample block:
952A  EE 2B 07 INC INC $072B                    A:00 X:02 Y:01 P:27 SP:F2

<L042>  occurrences: 12  block_size:2  repeated_instances:2
sample block:
9533  29 0F    AND AND #$0F                     A:07 X:02 Y:00 P:25 SP:F2
9535  C9 0D    CMP CMP #$0D                     A:07 X:02 Y:00 P:25 SP:F2

<L001>  occurrences: 791  block_size:1  repeated_instances:3
sample block:
95AB  A2 08    LDX LDX #$08                     A:07 X:10 Y:00 P:A4 SP:F0

<L043>  occurrences: 12  block_size:2  repeated_instances:2
sample block:
95B7  C9 0E    CMP CMP #$0E                     A:07 X:02 Y:00 P:24 SP:F0
95B9  D0 08    BNE BNE #$08                     A:07 X:02 Y:00 P:A4 SP:F0

<L001>  occurrences: 791  block_size:1  repeated_instances:3
sample block:
95EB  D0 0B    BNE BNE #$0B                     A:00 X:02 Y:01 P:26 SP:F0

<L042>  occurrences: 12  block_size:2  repeated_instances:2
sample block:
9533  29 0F    AND AND #$0F                     A:07 X:01 Y:00 P:25 SP:F2
9535  C9 0D    CMP CMP #$0D                     A:07 X:01 Y:00 P:25 SP:F2

<L001>  occurrences: 791  block_size:1  repeated_instances:3
sample block:
95AB  A2 08    LDX LDX #$08                     A:07 X:10 Y:00 P:A4 SP:F0

<L043>  occurrences: 12  block_size:2  repeated_instances:2
sample block:
95B7  C9 0E    CMP CMP #$0E                     A:07 X:01 Y:00 P:24 SP:F0
95B9  D0 08    BNE BNE #$08                     A:07 X:01 Y:00 P:A4 SP:F0

<L001>  occurrences: 791  block_size:1  repeated_instances:3
sample block:
95EB  D0 0B    BNE BNE #$0B                     A:00 X:01 Y:01 P:26 SP:F0

<L042>  occurrences: 12  block_size:2  repeated_instances:2
sample block:
9533  29 0F    AND AND #$0F                     A:07 X:00 Y:00 P:25 SP:F2
9535  C9 0D    CMP CMP #$0D                     A:07 X:00 Y:00 P:25 SP:F2

<L001>  occurrences: 791  block_size:1  repeated_instances:3
sample block:
95AB  A2 08    LDX LDX #$08                     A:07 X:10 Y:00 P:A4 SP:F0

<L043>  occurrences: 12  block_size:2  repeated_instances:2
sample block:
95B7  C9 0E    CMP CMP #$0E                     A:07 X:00 Y:00 P:26 SP:F0
95B9  D0 08    BNE BNE #$08                     A:07 X:00 Y:00 P:A4 SP:F0

<L001>  occurrences: 791  block_size:1  repeated_instances:3
sample block:
95EB  D0 0B    BNE BNE #$0B                     A:00 X:00 Y:01 P:26 SP:F0

<L058>  occurrences: 4  block_size:2  repeated_instances:2
sample block:
957E  AD 29 07 LDA LDA $0729                    A:FF X:FF Y:00 P:A4 SP:F2
9581  D0 85    BNE BNE #$85                     A:00 X:FF Y:00 P:26 SP:F2

<L010>  occurrences: 80  block_size:6  repeated_instances:2
sample block:
9BE2  4A       LSR A                            A:00 X:FF Y:00 P:26 SP:F1
9BE3  4A       LSR A                            A:00 X:FF Y:00 P:26 SP:F1
9BE6  A8       TAY                              A:00 X:FF Y:00 P:26 SP:F1
9BE7  B9 DF 9B LDA LDA $9BDF,Y                  A:00 X:FF Y:00 P:26 SP:F1
9BEA  85 07    STA STA $07                      A:05 X:FF Y:00 P:24 SP:F1
9BEC  68       PLA                              A:05 X:FF Y:00 P:24 SP:F1

<L012>  occurrences: 64  block_size:1  repeated_instances:2
sample block:
94E8  2A       ROL A                            A:00 X:00 Y:00 P:26 SP:F4

<L001>  occurrences: 791  block_size:1  repeated_instances:3
sample block:
94EA  A8       TAY                              A:00 X:00 Y:00 P:26 SP:F4

<L002>  occurrences: 396  block_size:2  repeated_instances:2
sample block:
94FA  18       CLC                              A:00 X:00 Y:00 P:26 SP:F4
94FB  69 10    ADC ADC #$10                     A:00 X:00 Y:00 P:26 SP:F4

<L012>  occurrences: 64  block_size:1  repeated_instances:2
sample block:
94E8  2A       ROL A                            A:00 X:01 Y:10 P:26 SP:F4

<L001>  occurrences: 791  block_size:1  repeated_instances:3
sample block:
94EA  A8       TAY                              A:00 X:01 Y:10 P:26 SP:F4

<L002>  occurrences: 396  block_size:2  repeated_instances:2
sample block:
94FA  18       CLC                              A:10 X:01 Y:10 P:24 SP:F4
94FB  69 10    ADC ADC #$10                     A:10 X:01 Y:10 P:24 SP:F4

<L012>  occurrences: 64  block_size:1  repeated_instances:2
sample block:
94E8  2A       ROL A                            A:00 X:02 Y:20 P:26 SP:F4

<L001>  occurrences: 791  block_size:1  repeated_instances:3
sample block:
94EA  A8       TAY                              A:00 X:02 Y:20 P:26 SP:F4

<L002>  occurrences: 396  block_size:2  repeated_instances:2
sample block:
94FA  18       CLC                              A:20 X:02 Y:20 P:24 SP:F4
94FB  69 10    ADC ADC #$10                     A:20 X:02 Y:20 P:24 SP:F4

<L012>  occurrences: 64  block_size:1  repeated_instances:2
sample block:
94E8  2A       ROL A                            A:00 X:03 Y:30 P:26 SP:F4

<L001>  occurrences: 791  block_size:1  repeated_instances:3
sample block:
94EA  A8       TAY                              A:00 X:03 Y:30 P:26 SP:F4

<L002>  occurrences: 396  block_size:2  repeated_instances:2
sample block:
94FA  18       CLC                              A:30 X:03 Y:30 P:24 SP:F4
94FB  69 10    ADC ADC #$10                     A:30 X:03 Y:30 P:24 SP:F4

<L012>  occurrences: 64  block_size:1  repeated_instances:2
sample block:
94E8  2A       ROL A                            A:00 X:04 Y:40 P:26 SP:F4

<L001>  occurrences: 791  block_size:1  repeated_instances:3
sample block:
94EA  A8       TAY                              A:00 X:04 Y:40 P:26 SP:F4

<L002>  occurrences: 396  block_size:2  repeated_instances:2
sample block:
94FA  18       CLC                              A:40 X:04 Y:40 P:24 SP:F4
94FB  69 10    ADC ADC #$10                     A:40 X:04 Y:40 P:24 SP:F4

<L012>  occurrences: 64  block_size:1  repeated_instances:2
sample block:
94E8  2A       ROL A                            A:00 X:05 Y:50 P:26 SP:F4

<L001>  occurrences: 791  block_size:1  repeated_instances:3
sample block:
94EA  A8       TAY                              A:00 X:05 Y:50 P:26 SP:F4

<L002>  occurrences: 396  block_size:2  repeated_instances:2
sample block:
94FA  18       CLC                              A:50 X:05 Y:50 P:24 SP:F4
94FB  69 10    ADC ADC #$10                     A:50 X:05 Y:50 P:24 SP:F4

<L012>  occurrences: 64  block_size:1  repeated_instances:2
sample block:
94E8  2A       ROL A                            A:00 X:06 Y:60 P:26 SP:F4

<L001>  occurrences: 791  block_size:1  repeated_instances:3
sample block:
94EA  A8       TAY                              A:00 X:06 Y:60 P:26 SP:F4

<L002>  occurrences: 396  block_size:2  repeated_instances:2
sample block:
94FA  18       CLC                              A:60 X:06 Y:60 P:24 SP:F4
94FB  69 10    ADC ADC #$10                     A:60 X:06 Y:60 P:24 SP:F4

<L012>  occurrences: 64  block_size:1  repeated_instances:2
sample block:
94E8  2A       ROL A                            A:00 X:07 Y:70 P:26 SP:F4

<L001>  occurrences: 791  block_size:1  repeated_instances:3
sample block:
94EA  A8       TAY                              A:00 X:07 Y:70 P:26 SP:F4

<L002>  occurrences: 396  block_size:2  repeated_instances:2
sample block:
94FA  18       CLC                              A:70 X:07 Y:70 P:24 SP:F4
94FB  69 10    ADC ADC #$10                     A:70 X:07 Y:70 P:24 SP:F4

<L012>  occurrences: 64  block_size:1  repeated_instances:2
sample block:
94E8  2A       ROL A                            A:00 X:08 Y:80 P:66 SP:F4

<L001>  occurrences: 791  block_size:1  repeated_instances:3
sample block:
94EA  A8       TAY                              A:00 X:08 Y:80 P:66 SP:F4

<L002>  occurrences: 396  block_size:2  repeated_instances:2
sample block:
94FA  18       CLC                              A:80 X:08 Y:80 P:E4 SP:F4
94FB  69 10    ADC ADC #$10                     A:80 X:08 Y:80 P:E4 SP:F4

<L012>  occurrences: 64  block_size:1  repeated_instances:2
sample block:
94E8  2A       ROL A                            A:00 X:09 Y:90 P:26 SP:F4

<L001>  occurrences: 791  block_size:1  repeated_instances:3
sample block:
94EA  A8       TAY                              A:00 X:09 Y:90 P:26 SP:F4

<L002>  occurrences: 396  block_size:2  repeated_instances:2
sample block:
94FA  18       CLC                              A:90 X:09 Y:90 P:A4 SP:F4
94FB  69 10    ADC ADC #$10                     A:90 X:09 Y:90 P:A4 SP:F4

<L012>  occurrences: 64  block_size:1  repeated_instances:2
sample block:
94E8  2A       ROL A                            A:00 X:0A Y:A0 P:26 SP:F4

<L001>  occurrences: 791  block_size:1  repeated_instances:3
sample block:
94EA  A8       TAY                              A:00 X:0A Y:A0 P:26 SP:F4

<L002>  occurrences: 396  block_size:2  repeated_instances:2
sample block:
94FA  18       CLC                              A:A0 X:0A Y:A0 P:A4 SP:F4
94FB  69 10    ADC ADC #$10                     A:A0 X:0A Y:A0 P:A4 SP:F4

<L012>  occurrences: 64  block_size:1  repeated_instances:2
sample block:
94E8  2A       ROL A                            A:80 X:0B Y:B0 P:A4 SP:F4

<L001>  occurrences: 791  block_size:1  repeated_instances:3
sample block:
94EA  A8       TAY                              A:01 X:0B Y:B0 P:24 SP:F4

<L002>  occurrences: 396  block_size:2  repeated_instances:2
sample block:
94FA  18       CLC                              A:B0 X:0B Y:B0 P:A5 SP:F4
94FB  69 10    ADC ADC #$10                     A:B0 X:0B Y:B0 P:A4 SP:F4

<L012>  occurrences: 64  block_size:1  repeated_instances:2
sample block:
94E8  2A       ROL A                            A:80 X:0C Y:C0 P:A4 SP:F4

<L001>  occurrences: 791  block_size:1  repeated_instances:3
sample block:
94EA  A8       TAY                              A:01 X:0C Y:C0 P:24 SP:F4

<L002>  occurrences: 396  block_size:2  repeated_instances:2
sample block:
94FA  18       CLC                              A:C0 X:0C Y:C0 P:A5 SP:F4
94FB  69 10    ADC ADC #$10                     A:C0 X:0C Y:C0 P:A4 SP:F4

<L001>  occurrences: 791  block_size:1  repeated_instances:2
sample block:
86EC  AD 1F 07 LDA LDA $071F                    A:D0 X:0D Y:D0 P:25 SP:F8

<L001>  occurrences: 791  block_size:1  repeated_instances:3
sample block:
92BA  88       DEY                              A:07 X:0D Y:07 P:25 SP:F6

<L006>  occurrences: 114  block_size:2  repeated_instances:2
sample block:
8E06  68       PLA                              A:0C X:0D Y:0C P:24 SP:F2
8E07  85 04    STA STA $04                      A:CA X:0D Y:0C P:A4 SP:F3

<L007>  occurrences: 114  block_size:3  repeated_instances:2
sample block:
8E0C  C8       INY                              A:92 X:0D Y:0C P:A4 SP:F4
8E0D  B1 04    LDA LDA ($04),Y                  A:92 X:0D Y:0D P:24 SP:F4
8E0F  85 06    STA STA $06                      A:AE X:0D Y:0D P:A4 SP:F4

<L001>  occurrences: 791  block_size:1  repeated_instances:2
sample block:
88BA  AD 21 07 LDA LDA $0721                    A:00 X:0D Y:00 P:26 SP:F4

<L001>  occurrences: 791  block_size:1  repeated_instances:3
sample block:
88CB  A9 00    LDA LDA #$00                     A:9A X:0D Y:00 P:A4 SP:F4

<L002>  occurrences: 396  block_size:2  repeated_instances:2
sample block:
88DA  2A       ROL A                            A:00 X:00 Y:00 P:26 SP:F4
88DB  2A       ROL A                            A:00 X:00 Y:00 P:26 SP:F4

<L002>  occurrences: 396  block_size:2  repeated_instances:2
sample block:
88EA  0A       ASL A                            A:00 X:00 Y:00 P:26 SP:F4
88EB  0A       ASL A                            A:00 X:00 Y:00 P:26 SP:F4

<L001>  occurrences: 791  block_size:1  repeated_instances:2
sample block:
88FB  B1 06    LDA LDA ($06),Y                  A:00 X:00 Y:00 P:26 SP:F4

<L019>  occurrences: 42  block_size:1  repeated_instances:3
sample block:
8911  26 03    ROL ROL $03                      A:00 X:00 Y:00 P:26 SP:F4

<L009>  occurrences: 104  block_size:1  repeated_instances:2
sample block:
8938  E6 00    INC INC $00                      A:00 X:00 Y:00 P:26 SP:F4

<L002>  occurrences: 396  block_size:2  repeated_instances:2
sample block:
88DA  2A       ROL A                            A:00 X:01 Y:00 P:26 SP:F4
88DB  2A       ROL A                            A:00 X:01 Y:00 P:26 SP:F4

<L002>  occurrences: 396  block_size:2  repeated_instances:2
sample block:
88EA  0A       ASL A                            A:00 X:01 Y:00 P:26 SP:F4
88EB  0A       ASL A                            A:00 X:01 Y:00 P:26 SP:F4

<L001>  occurrences: 791  block_size:1  repeated_instances:2
sample block:
88FB  B1 06    LDA LDA ($06),Y                  A:00 X:02 Y:00 P:24 SP:F4

<L014>  occurrences: 52  block_size:1  repeated_instances:2
sample block:
892A  46 03    LSR LSR $03                      A:00 X:02 Y:00 P:27 SP:F4

<L009>  occurrences: 104  block_size:1  repeated_instances:2
sample block:
8938  E6 00    INC INC $00                      A:00 X:02 Y:00 P:26 SP:F4

<L002>  occurrences: 396  block_size:2  repeated_instances:2
sample block:
88DA  2A       ROL A                            A:00 X:02 Y:00 P:26 SP:F4
88DB  2A       ROL A                            A:00 X:02 Y:00 P:26 SP:F4

<L002>  occurrences: 396  block_size:2  repeated_instances:2
sample block:
88EA  0A       ASL A                            A:00 X:02 Y:00 P:26 SP:F4
88EB  0A       ASL A                            A:00 X:02 Y:00 P:26 SP:F4

<L001>  occurrences: 791  block_size:1  repeated_instances:2
sample block:
88FB  B1 06    LDA LDA ($06),Y                  A:00 X:04 Y:00 P:24 SP:F4

<L019>  occurrences: 42  block_size:1  repeated_instances:3
sample block:
8911  26 03    ROL ROL $03                      A:01 X:04 Y:01 P:24 SP:F4

<L009>  occurrences: 104  block_size:1  repeated_instances:2
sample block:
8938  E6 00    INC INC $00                      A:00 X:04 Y:01 P:26 SP:F4

<L002>  occurrences: 396  block_size:2  repeated_instances:2
sample block:
88DA  2A       ROL A                            A:00 X:03 Y:01 P:26 SP:F4
88DB  2A       ROL A                            A:00 X:03 Y:01 P:26 SP:F4

<L002>  occurrences: 396  block_size:2  repeated_instances:2
sample block:
88EA  0A       ASL A                            A:00 X:03 Y:00 P:26 SP:F4
88EB  0A       ASL A                            A:00 X:03 Y:00 P:26 SP:F4

<L001>  occurrences: 791  block_size:1  repeated_instances:2
sample block:
88FB  B1 06    LDA LDA ($06),Y                  A:00 X:06 Y:00 P:24 SP:F4

<L014>  occurrences: 52  block_size:1  repeated_instances:2
sample block:
892A  46 03    LSR LSR $03                      A:01 X:06 Y:01 P:25 SP:F4

<L009>  occurrences: 104  block_size:1  repeated_instances:2
sample block:
8938  E6 00    INC INC $00                      A:00 X:06 Y:01 P:26 SP:F4

<L002>  occurrences: 396  block_size:2  repeated_instances:2
sample block:
88DA  2A       ROL A                            A:00 X:04 Y:01 P:26 SP:F4
88DB  2A       ROL A                            A:00 X:04 Y:01 P:26 SP:F4

<L002>  occurrences: 396  block_size:2  repeated_instances:2
sample block:
88EA  0A       ASL A                            A:00 X:04 Y:00 P:26 SP:F4
88EB  0A       ASL A                            A:00 X:04 Y:00 P:26 SP:F4

<L001>  occurrences: 791  block_size:1  repeated_instances:2
sample block:
88FB  B1 06    LDA LDA ($06),Y                  A:00 X:08 Y:00 P:24 SP:F4

<L019>  occurrences: 42  block_size:1  repeated_instances:3
sample block:
8911  26 03    ROL ROL $03                      A:02 X:08 Y:02 P:24 SP:F4

<L009>  occurrences: 104  block_size:1  repeated_instances:2
sample block:
8938  E6 00    INC INC $00                      A:00 X:08 Y:02 P:26 SP:F4

<L002>  occurrences: 396  block_size:2  repeated_instances:2
sample block:
88DA  2A       ROL A                            A:00 X:05 Y:02 P:26 SP:F4
88DB  2A       ROL A                            A:00 X:05 Y:02 P:26 SP:F4

<L002>  occurrences: 396  block_size:2  repeated_instances:2
sample block:
88EA  0A       ASL A                            A:00 X:05 Y:00 P:26 SP:F4
88EB  0A       ASL A                            A:00 X:05 Y:00 P:26 SP:F4

<L001>  occurrences: 791  block_size:1  repeated_instances:2
sample block:
88FB  B1 06    LDA LDA ($06),Y                  A:00 X:0A Y:00 P:24 SP:F4

<L014>  occurrences: 52  block_size:1  repeated_instances:2
sample block:
892A  46 03    LSR LSR $03                      A:02 X:0A Y:02 P:25 SP:F4

<L009>  occurrences: 104  block_size:1  repeated_instances:2
sample block:
8938  E6 00    INC INC $00                      A:00 X:0A Y:02 P:26 SP:F4

<L002>  occurrences: 396  block_size:2  repeated_instances:2
sample block:
88DA  2A       ROL A                            A:00 X:06 Y:02 P:26 SP:F4
88DB  2A       ROL A                            A:00 X:06 Y:02 P:26 SP:F4

<L002>  occurrences: 396  block_size:2  repeated_instances:2
sample block:
88EA  0A       ASL A                            A:00 X:06 Y:00 P:26 SP:F4
88EB  0A       ASL A                            A:00 X:06 Y:00 P:26 SP:F4

<L001>  occurrences: 791  block_size:1  repeated_instances:2
sample block:
88FB  B1 06    LDA LDA ($06),Y                  A:00 X:0C Y:00 P:24 SP:F4

<L019>  occurrences: 42  block_size:1  repeated_instances:3
sample block:
8911  26 03    ROL ROL $03                      A:03 X:0C Y:03 P:24 SP:F4

<L009>  occurrences: 104  block_size:1  repeated_instances:2
sample block:
8938  E6 00    INC INC $00                      A:00 X:0C Y:03 P:26 SP:F4

<L002>  occurrences: 396  block_size:2  repeated_instances:2
sample block:
88DA  2A       ROL A                            A:00 X:07 Y:03 P:26 SP:F4
88DB  2A       ROL A                            A:00 X:07 Y:03 P:26 SP:F4

<L002>  occurrences: 396  block_size:2  repeated_instances:2
sample block:
88EA  0A       ASL A                            A:00 X:07 Y:00 P:26 SP:F4
88EB  0A       ASL A                            A:00 X:07 Y:00 P:26 SP:F4

<L001>  occurrences: 791  block_size:1  repeated_instances:2
sample block:
88FB  B1 06    LDA LDA ($06),Y                  A:00 X:0E Y:00 P:24 SP:F4

<L014>  occurrences: 52  block_size:1  repeated_instances:2
sample block:
892A  46 03    LSR LSR $03                      A:03 X:0E Y:03 P:25 SP:F4

<L009>  occurrences: 104  block_size:1  repeated_instances:2
sample block:
8938  E6 00    INC INC $00                      A:00 X:0E Y:03 P:26 SP:F4

<L002>  occurrences: 396  block_size:2  repeated_instances:2
sample block:
88DA  2A       ROL A                            A:00 X:08 Y:03 P:26 SP:F4
88DB  2A       ROL A                            A:00 X:08 Y:03 P:26 SP:F4

<L002>  occurrences: 396  block_size:2  repeated_instances:2
sample block:
88EA  0A       ASL A                            A:00 X:08 Y:00 P:26 SP:F4
88EB  0A       ASL A                            A:00 X:08 Y:00 P:26 SP:F4

<L001>  occurrences: 791  block_size:1  repeated_instances:2
sample block:
88FB  B1 06    LDA LDA ($06),Y                  A:00 X:10 Y:00 P:24 SP:F4

<L019>  occurrences: 42  block_size:1  repeated_instances:3
sample block:
8911  26 03    ROL ROL $03                      A:04 X:10 Y:04 P:24 SP:F4

<L009>  occurrences: 104  block_size:1  repeated_instances:2
sample block:
8938  E6 00    INC INC $00                      A:00 X:10 Y:04 P:26 SP:F4

<L002>  occurrences: 396  block_size:2  repeated_instances:2
sample block:
88DA  2A       ROL A                            A:00 X:09 Y:04 P:26 SP:F4
88DB  2A       ROL A                            A:00 X:09 Y:04 P:26 SP:F4

<L002>  occurrences: 396  block_size:2  repeated_instances:2
sample block:
88EA  0A       ASL A                            A:00 X:09 Y:00 P:26 SP:F4
88EB  0A       ASL A                            A:00 X:09 Y:00 P:26 SP:F4

<L001>  occurrences: 791  block_size:1  repeated_instances:2
sample block:
88FB  B1 06    LDA LDA ($06),Y                  A:00 X:12 Y:00 P:24 SP:F4

<L014>  occurrences: 52  block_size:1  repeated_instances:2
sample block:
892A  46 03    LSR LSR $03                      A:04 X:12 Y:04 P:25 SP:F4

<L009>  occurrences: 104  block_size:1  repeated_instances:2
sample block:
8938  E6 00    INC INC $00                      A:00 X:12 Y:04 P:26 SP:F4

<L002>  occurrences: 396  block_size:2  repeated_instances:2
sample block:
88DA  2A       ROL A                            A:00 X:0A Y:04 P:26 SP:F4
88DB  2A       ROL A                            A:00 X:0A Y:04 P:26 SP:F4

<L002>  occurrences: 396  block_size:2  repeated_instances:2
sample block:
88EA  0A       ASL A                            A:05 X:0A Y:00 P:24 SP:F4
88EB  0A       ASL A                            A:0A X:0A Y:00 P:24 SP:F4

<L001>  occurrences: 791  block_size:1  repeated_instances:2
sample block:
88FB  B1 06    LDA LDA ($06),Y                  A:14 X:14 Y:14 P:24 SP:F4

<L019>  occurrences: 42  block_size:1  repeated_instances:3
sample block:
8911  26 03    ROL ROL $03                      A:05 X:14 Y:05 P:24 SP:F4

<L009>  occurrences: 104  block_size:1  repeated_instances:2
sample block:
8938  E6 00    INC INC $00                      A:00 X:14 Y:05 P:26 SP:F4

<L002>  occurrences: 396  block_size:2  repeated_instances:2
sample block:
88DA  2A       ROL A                            A:80 X:0B Y:05 P:A4 SP:F4
88DB  2A       ROL A                            A:00 X:0B Y:05 P:27 SP:F4

<L002>  occurrences: 396  block_size:2  repeated_instances:2
sample block:
88EA  0A       ASL A                            A:54 X:0B Y:01 P:24 SP:F4
88EB  0A       ASL A                            A:A8 X:0B Y:01 P:A4 SP:F4

<L001>  occurrences: 791  block_size:1  repeated_instances:2
sample block:
88FB  B1 06    LDA LDA ($06),Y                  A:50 X:16 Y:50 P:24 SP:F4

<L014>  occurrences: 52  block_size:1  repeated_instances:2
sample block:
892A  46 03    LSR LSR $03                      A:05 X:16 Y:05 P:25 SP:F4

<L009>  occurrences: 104  block_size:1  repeated_instances:2
sample block:
8938  E6 00    INC INC $00                      A:10 X:16 Y:05 P:24 SP:F4

<L002>  occurrences: 396  block_size:2  repeated_instances:2
sample block:
88DA  2A       ROL A                            A:80 X:0C Y:05 P:A4 SP:F4
88DB  2A       ROL A                            A:00 X:0C Y:05 P:27 SP:F4

<L002>  occurrences: 396  block_size:2  repeated_instances:2
sample block:
88EA  0A       ASL A                            A:54 X:0C Y:01 P:24 SP:F4
88EB  0A       ASL A                            A:A8 X:0C Y:01 P:A4 SP:F4

<L001>  occurrences: 791  block_size:1  repeated_instances:2
sample block:
88FB  B1 06    LDA LDA ($06),Y                  A:50 X:18 Y:50 P:24 SP:F4

<L019>  occurrences: 42  block_size:1  repeated_instances:3
sample block:
8911  26 03    ROL ROL $03                      A:06 X:18 Y:06 P:24 SP:F4

<L009>  occurrences: 104  block_size:1  repeated_instances:2
sample block:
8938  E6 00    INC INC $00                      A:01 X:18 Y:06 P:24 SP:F4

<L038>  occurrences: 14  block_size:1  repeated_instances:3
sample block:
8945  C8       INY                              A:01 X:0D Y:1A P:25 SP:F4

<L017>  occurrences: 50  block_size:1  repeated_instances:2
sample block:
8956  29 1F    AND AND #$1F                     A:81 X:0D Y:1D P:A5 SP:F4

<L001>  occurrences: 791  block_size:1  repeated_instances:2
sample block:
89BD  A9 06    LDA LDA #$06                     A:01 X:0D Y:1D P:25 SP:F4

<L001>  occurrences: 791  block_size:1  repeated_instances:2
sample block:
86EC  AD 1F 07 LDA LDA $071F                    A:06 X:0D Y:1D P:25 SP:F8

<L001>  occurrences: 791  block_size:1  repeated_instances:3
sample block:
92BA  88       DEY                              A:06 X:0D Y:06 P:25 SP:F6

<L006>  occurrences: 114  block_size:2  repeated_instances:2
sample block:
8E06  68       PLA                              A:0A X:0D Y:0A P:24 SP:F2
8E07  85 04    STA STA $04                      A:CA X:0D Y:0A P:A4 SP:F3

<L007>  occurrences: 114  block_size:3  repeated_instances:2
sample block:
8E0C  C8       INY                              A:92 X:0D Y:0A P:A4 SP:F4
8E0D  B1 04    LDA LDA ($04),Y                  A:92 X:0D Y:0B P:24 SP:F4
8E0F  85 06    STA STA $06                      A:AE X:0D Y:0B P:A4 SP:F4

<L001>  occurrences: 791  block_size:1  repeated_instances:2
sample block:
88BA  AD 21 07 LDA LDA $0721                    A:00 X:0D Y:1D P:24 SP:F4

<L001>  occurrences: 791  block_size:1  repeated_instances:3
sample block:
88CB  A9 00    LDA LDA #$00                     A:9A X:0D Y:1D P:A4 SP:F4

<L002>  occurrences: 396  block_size:2  repeated_instances:2
sample block:
88DA  2A       ROL A                            A:00 X:00 Y:1D P:26 SP:F4
88DB  2A       ROL A                            A:00 X:00 Y:1D P:26 SP:F4

<L002>  occurrences: 396  block_size:2  repeated_instances:2
sample block:
88EA  0A       ASL A                            A:00 X:00 Y:00 P:26 SP:F4
88EB  0A       ASL A                            A:00 X:00 Y:00 P:26 SP:F4

<L001>  occurrences: 791  block_size:1  repeated_instances:2
sample block:
88FB  B1 06    LDA LDA ($06),Y                  A:02 X:1D Y:02 P:24 SP:F4

<L019>  occurrences: 42  block_size:1  repeated_instances:3
sample block:
8911  26 03    ROL ROL $03                      A:00 X:1D Y:00 P:26 SP:F4

<L009>  occurrences: 104  block_size:1  repeated_instances:2
sample block:
8938  E6 00    INC INC $00                      A:00 X:1D Y:00 P:26 SP:F4

<L002>  occurrences: 396  block_size:2  repeated_instances:2
sample block:
88DA  2A       ROL A                            A:00 X:01 Y:00 P:26 SP:F4
88DB  2A       ROL A                            A:00 X:01 Y:00 P:26 SP:F4

<L002>  occurrences: 396  block_size:2  repeated_instances:2
sample block:
88EA  0A       ASL A                            A:00 X:01 Y:00 P:26 SP:F4
88EB  0A       ASL A                            A:00 X:01 Y:00 P:26 SP:F4

<L001>  occurrences: 791  block_size:1  repeated_instances:2
sample block:
88FB  B1 06    LDA LDA ($06),Y                  A:02 X:1F Y:02 P:24 SP:F4

<L014>  occurrences: 52  block_size:1  repeated_instances:2
sample block:
892A  46 03    LSR LSR $03                      A:00 X:1F Y:00 P:27 SP:F4

<L009>  occurrences: 104  block_size:1  repeated_instances:2
sample block:
8938  E6 00    INC INC $00                      A:00 X:1F Y:00 P:26 SP:F4

<L002>  occurrences: 396  block_size:2  repeated_instances:2
sample block:
88DA  2A       ROL A                            A:00 X:02 Y:00 P:26 SP:F4
88DB  2A       ROL A                            A:00 X:02 Y:00 P:26 SP:F4

<L002>  occurrences: 396  block_size:2  repeated_instances:2
sample block:
88EA  0A       ASL A                            A:00 X:02 Y:00 P:26 SP:F4
88EB  0A       ASL A                            A:00 X:02 Y:00 P:26 SP:F4

<L001>  occurrences: 791  block_size:1  repeated_instances:2
sample block:
88FB  B1 06    LDA LDA ($06),Y                  A:02 X:21 Y:02 P:24 SP:F4

<L019>  occurrences: 42  block_size:1  repeated_instances:3
sample block:
8911  26 03    ROL ROL $03                      A:01 X:21 Y:01 P:24 SP:F4

<L009>  occurrences: 104  block_size:1  repeated_instances:2
sample block:
8938  E6 00    INC INC $00                      A:00 X:21 Y:01 P:26 SP:F4

<L002>  occurrences: 396  block_size:2  repeated_instances:2
sample block:
88DA  2A       ROL A                            A:00 X:03 Y:01 P:26 SP:F4
88DB  2A       ROL A                            A:00 X:03 Y:01 P:26 SP:F4

<L002>  occurrences: 396  block_size:2  repeated_instances:2
sample block:
88EA  0A       ASL A                            A:00 X:03 Y:00 P:26 SP:F4
88EB  0A       ASL A                            A:00 X:03 Y:00 P:26 SP:F4

<L001>  occurrences: 791  block_size:1  repeated_instances:2
sample block:
88FB  B1 06    LDA LDA ($06),Y                  A:02 X:23 Y:02 P:24 SP:F4

<L014>  occurrences: 52  block_size:1  repeated_instances:2
sample block:
892A  46 03    LSR LSR $03                      A:01 X:23 Y:01 P:25 SP:F4

<L009>  occurrences: 104  block_size:1  repeated_instances:2
sample block:
8938  E6 00    INC INC $00                      A:00 X:23 Y:01 P:26 SP:F4

<L002>  occurrences: 396  block_size:2  repeated_instances:2
sample block:
88DA  2A       ROL A                            A:00 X:04 Y:01 P:26 SP:F4
88DB  2A       ROL A                            A:00 X:04 Y:01 P:26 SP:F4

<L002>  occurrences: 396  block_size:2  repeated_instances:2
sample block:
88EA  0A       ASL A                            A:00 X:04 Y:00 P:26 SP:F4
88EB  0A       ASL A                            A:00 X:04 Y:00 P:26 SP:F4

<L001>  occurrences: 791  block_size:1  repeated_instances:2
sample block:
88FB  B1 06    LDA LDA ($06),Y                  A:02 X:25 Y:02 P:24 SP:F4

<L019>  occurrences: 42  block_size:1  repeated_instances:3
sample block:
8911  26 03    ROL ROL $03                      A:02 X:25 Y:02 P:24 SP:F4

<L009>  occurrences: 104  block_size:1  repeated_instances:2
sample block:
8938  E6 00    INC INC $00                      A:00 X:25 Y:02 P:26 SP:F4

<L002>  occurrences: 396  block_size:2  repeated_instances:2
sample block:
88DA  2A       ROL A                            A:00 X:05 Y:02 P:26 SP:F4
88DB  2A       ROL A                            A:00 X:05 Y:02 P:26 SP:F4

<L002>  occurrences: 396  block_size:2  repeated_instances:2
sample block:
88EA  0A       ASL A                            A:00 X:05 Y:00 P:26 SP:F4
88EB  0A       ASL A                            A:00 X:05 Y:00 P:26 SP:F4

<L001>  occurrences: 791  block_size:1  repeated_instances:2
sample block:
88FB  B1 06    LDA LDA ($06),Y                  A:02 X:27 Y:02 P:24 SP:F4

<L014>  occurrences: 52  block_size:1  repeated_instances:2
sample block:
892A  46 03    LSR LSR $03                      A:02 X:27 Y:02 P:25 SP:F4

<L009>  occurrences: 104  block_size:1  repeated_instances:2
sample block:
8938  E6 00    INC INC $00                      A:00 X:27 Y:02 P:26 SP:F4

<L002>  occurrences: 396  block_size:2  repeated_instances:2
sample block:
88DA  2A       ROL A                            A:00 X:06 Y:02 P:26 SP:F4
88DB  2A       ROL A                            A:00 X:06 Y:02 P:26 SP:F4

<L002>  occurrences: 396  block_size:2  repeated_instances:2
sample block:
88EA  0A       ASL A                            A:00 X:06 Y:00 P:26 SP:F4
88EB  0A       ASL A                            A:00 X:06 Y:00 P:26 SP:F4

<L001>  occurrences: 791  block_size:1  repeated_instances:2
sample block:
88FB  B1 06    LDA LDA ($06),Y                  A:02 X:29 Y:02 P:24 SP:F4

<L019>  occurrences: 42  block_size:1  repeated_instances:3
sample block:
8911  26 03    ROL ROL $03                      A:03 X:29 Y:03 P:24 SP:F4

<L009>  occurrences: 104  block_size:1  repeated_instances:2
sample block:
8938  E6 00    INC INC $00                      A:00 X:29 Y:03 P:26 SP:F4

<L002>  occurrences: 396  block_size:2  repeated_instances:2
sample block:
88DA  2A       ROL A                            A:00 X:07 Y:03 P:26 SP:F4
88DB  2A       ROL A                            A:00 X:07 Y:03 P:26 SP:F4

<L002>  occurrences: 396  block_size:2  repeated_instances:2
sample block:
88EA  0A       ASL A                            A:00 X:07 Y:00 P:26 SP:F4
88EB  0A       ASL A                            A:00 X:07 Y:00 P:26 SP:F4

<L001>  occurrences: 791  block_size:1  repeated_instances:2
sample block:
88FB  B1 06    LDA LDA ($06),Y                  A:02 X:2B Y:02 P:24 SP:F4

<L014>  occurrences: 52  block_size:1  repeated_instances:2
sample block:
892A  46 03    LSR LSR $03                      A:03 X:2B Y:03 P:25 SP:F4

<L009>  occurrences: 104  block_size:1  repeated_instances:2
sample block:
8938  E6 00    INC INC $00                      A:00 X:2B Y:03 P:26 SP:F4

<L002>  occurrences: 396  block_size:2  repeated_instances:2
sample block:
88DA  2A       ROL A                            A:00 X:08 Y:03 P:26 SP:F4
88DB  2A       ROL A                            A:00 X:08 Y:03 P:26 SP:F4

<L002>  occurrences: 396  block_size:2  repeated_instances:2
sample block:
88EA  0A       ASL A                            A:00 X:08 Y:00 P:26 SP:F4
88EB  0A       ASL A                            A:00 X:08 Y:00 P:26 SP:F4

<L001>  occurrences: 791  block_size:1  repeated_instances:2
sample block:
88FB  B1 06    LDA LDA ($06),Y                  A:02 X:2D Y:02 P:24 SP:F4

<L019>  occurrences: 42  block_size:1  repeated_instances:3
sample block:
8911  26 03    ROL ROL $03                      A:04 X:2D Y:04 P:24 SP:F4

<L009>  occurrences: 104  block_size:1  repeated_instances:2
sample block:
8938  E6 00    INC INC $00                      A:00 X:2D Y:04 P:26 SP:F4

<L002>  occurrences: 396  block_size:2  repeated_instances:2
sample block:
88DA  2A       ROL A                            A:00 X:09 Y:04 P:26 SP:F4
88DB  2A       ROL A                            A:00 X:09 Y:04 P:26 SP:F4

<L002>  occurrences: 396  block_size:2  repeated_instances:2
sample block:
88EA  0A       ASL A                            A:00 X:09 Y:00 P:26 SP:F4
88EB  0A       ASL A                            A:00 X:09 Y:00 P:26 SP:F4

<L001>  occurrences: 791  block_size:1  repeated_instances:2
sample block:
88FB  B1 06    LDA LDA ($06),Y                  A:02 X:2F Y:02 P:24 SP:F4

<L014>  occurrences: 52  block_size:1  repeated_instances:2
sample block:
892A  46 03    LSR LSR $03                      A:04 X:2F Y:04 P:25 SP:F4

<L009>  occurrences: 104  block_size:1  repeated_instances:2
sample block:
8938  E6 00    INC INC $00                      A:00 X:2F Y:04 P:26 SP:F4

<L002>  occurrences: 396  block_size:2  repeated_instances:2
sample block:
88DA  2A       ROL A                            A:00 X:0A Y:04 P:26 SP:F4
88DB  2A       ROL A                            A:00 X:0A Y:04 P:26 SP:F4

<L002>  occurrences: 396  block_size:2  repeated_instances:2
sample block:
88EA  0A       ASL A                            A:05 X:0A Y:00 P:24 SP:F4
88EB  0A       ASL A                            A:0A X:0A Y:00 P:24 SP:F4

<L001>  occurrences: 791  block_size:1  repeated_instances:2
sample block:
88FB  B1 06    LDA LDA ($06),Y                  A:16 X:31 Y:16 P:24 SP:F4

<L019>  occurrences: 42  block_size:1  repeated_instances:3
sample block:
8911  26 03    ROL ROL $03                      A:05 X:31 Y:05 P:24 SP:F4

<L009>  occurrences: 104  block_size:1  repeated_instances:2
sample block:
8938  E6 00    INC INC $00                      A:10 X:31 Y:05 P:24 SP:F4

<L002>  occurrences: 396  block_size:2  repeated_instances:2
sample block:
88DA  2A       ROL A                            A:80 X:0B Y:05 P:A4 SP:F4
88DB  2A       ROL A                            A:00 X:0B Y:05 P:27 SP:F4

<L002>  occurrences: 396  block_size:2  repeated_instances:2
sample block:
88EA  0A       ASL A                            A:54 X:0B Y:01 P:24 SP:F4
88EB  0A       ASL A                            A:A8 X:0B Y:01 P:A4 SP:F4

<L001>  occurrences: 791  block_size:1  repeated_instances:2
sample block:
88FB  B1 06    LDA LDA ($06),Y                  A:52 X:33 Y:52 P:24 SP:F4

<L014>  occurrences: 52  block_size:1  repeated_instances:2
sample block:
892A  46 03    LSR LSR $03                      A:05 X:33 Y:05 P:25 SP:F4

<L009>  occurrences: 104  block_size:1  repeated_instances:2
sample block:
8938  E6 00    INC INC $00                      A:10 X:33 Y:05 P:24 SP:F4

<L002>  occurrences: 396  block_size:2  repeated_instances:2
sample block:
88DA  2A       ROL A                            A:80 X:0C Y:05 P:A4 SP:F4
88DB  2A       ROL A                            A:00 X:0C Y:05 P:27 SP:F4

<L002>  occurrences: 396  block_size:2  repeated_instances:2
sample block:
88EA  0A       ASL A                            A:54 X:0C Y:01 P:24 SP:F4
88EB  0A       ASL A                            A:A8 X:0C Y:01 P:A4 SP:F4

<L001>  occurrences: 791  block_size:1  repeated_instances:2
sample block:
88FB  B1 06    LDA LDA ($06),Y                  A:52 X:35 Y:52 P:24 SP:F4

<L019>  occurrences: 42  block_size:1  repeated_instances:3
sample block:
8911  26 03    ROL ROL $03                      A:06 X:35 Y:06 P:24 SP:F4

<L009>  occurrences: 104  block_size:1  repeated_instances:2
sample block:
8938  E6 00    INC INC $00                      A:01 X:35 Y:06 P:24 SP:F4

<L038>  occurrences: 14  block_size:1  repeated_instances:3
sample block:
8945  C8       INY                              A:01 X:0D Y:37 P:25 SP:F4

<L017>  occurrences: 50  block_size:1  repeated_instances:2
sample block:
8956  29 1F    AND AND #$1F                     A:82 X:0D Y:3A P:A5 SP:F4

<L001>  occurrences: 791  block_size:1  repeated_instances:2
sample block:
89BD  A9 06    LDA LDA #$06                     A:02 X:0D Y:3A P:25 SP:F4

<L001>  occurrences: 791  block_size:1  repeated_instances:2
sample block:
86EC  AD 1F 07 LDA LDA $071F                    A:06 X:0D Y:3A P:25 SP:F8

<L001>  occurrences: 791  block_size:1  repeated_instances:3
sample block:
92BA  88       DEY                              A:05 X:0D Y:05 P:25 SP:F6

<L006>  occurrences: 114  block_size:2  repeated_instances:2
sample block:
8E06  68       PLA                              A:08 X:0D Y:08 P:24 SP:F2
8E07  85 04    STA STA $04                      A:CA X:0D Y:08 P:A4 SP:F3

<L007>  occurrences: 114  block_size:3  repeated_instances:2
sample block:
8E0C  C8       INY                              A:92 X:0D Y:08 P:A4 SP:F4
8E0D  B1 04    LDA LDA ($04),Y                  A:92 X:0D Y:09 P:24 SP:F4
8E0F  85 06    STA STA $06                      A:DB X:0D Y:09 P:A4 SP:F4

<L001>  occurrences: 791  block_size:1  repeated_instances:2
sample block:
92DB  EE 26 07 INC INC $0726                    A:92 X:0D Y:0A P:A4 SP:F4

<L017>  occurrences: 50  block_size:1  repeated_instances:2
sample block:
92E1  29 0F    AND AND #$0F                     A:01 X:0D Y:0A P:24 SP:F4

<L001>  occurrences: 791  block_size:1  repeated_instances:2
sample block:
92EB  EE A0 06 INC INC $06A0                    A:01 X:0D Y:0A P:24 SP:F4

<L001>  occurrences: 791  block_size:1  repeated_instances:2
sample block:
86EC  AD 1F 07 LDA LDA $071F                    A:01 X:0D Y:0A P:24 SP:F8

<L001>  occurrences: 791  block_size:1  repeated_instances:3
sample block:
92BA  88       DEY                              A:04 X:0D Y:04 P:24 SP:F6

<L006>  occurrences: 114  block_size:2  repeated_instances:2
sample block:
8E06  68       PLA                              A:06 X:0D Y:06 P:24 SP:F2
8E07  85 04    STA STA $04                      A:CA X:0D Y:06 P:A4 SP:F3

<L007>  occurrences: 114  block_size:3  repeated_instances:2
sample block:
8E0C  C8       INY                              A:92 X:0D Y:06 P:A4 SP:F4
8E0D  B1 04    LDA LDA ($04),Y                  A:92 X:0D Y:07 P:24 SP:F4
8E0F  85 06    STA STA $06                      A:FC X:0D Y:07 P:A4 SP:F4

<L001>  occurrences: 791  block_size:1  repeated_instances:2
sample block:
93FC  AD 28 07 LDA LDA $0728                    A:93 X:0D Y:08 P:A4 SP:F4

<L057>  occurrences: 4  block_size:6  repeated_instances:2
sample block:
9408  9D A1 06 STA STA $06A1,X                  A:00 X:0C Y:08 P:26 SP:F4
940B  CA       DEX                              A:00 X:0C Y:08 P:26 SP:F4
940C  10 FA    BPL BPL #$FA                     A:00 X:0B Y:08 P:24 SP:F4
9408  9D A1 06 STA STA $06A1,X                  A:00 X:0B Y:08 P:24 SP:F4
940B  CA       DEX                              A:00 X:0B Y:08 P:24 SP:F4
940C  10 FA    BPL BPL #$FA                     A:00 X:0A Y:08 P:24 SP:F4

<L041>  occurrences: 12  block_size:1  repeated_instances:2
sample block:
941F  0A       ASL A                            A:00 X:FF Y:02 P:A4 SP:F4

<L024>  occurrences: 34  block_size:1  repeated_instances:2
sample block:
943C  4A       LSR A                            A:87 X:12 Y:02 P:A4 SP:F4

<L070>  occurrences: 2  block_size:8  repeated_instances:2
sample block:
9445  BD 8A 93 LDA LDA $938A,X                  A:03 X:12 Y:08 P:24 SP:F4
9448  99 A1 06 STA STA $06A1,Y                  A:00 X:12 Y:08 P:26 SP:F4
944B  E8       INX                              A:00 X:12 Y:08 P:26 SP:F4
944C  C8       INY                              A:00 X:13 Y:08 P:24 SP:F4
944D  C0 0B    CPY CPY #$0B                     A:00 X:13 Y:09 P:24 SP:F4
944F  F0 04    BEQ BEQ #$04                     A:00 X:13 Y:09 P:A4 SP:F4
9451  C6 00    DEC DEC $00                      A:00 X:13 Y:09 P:A4 SP:F4
9453  D0 F0    BNE BNE #$F0                     A:00 X:13 Y:09 P:24 SP:F4

<L033>  occurrences: 22  block_size:12  repeated_instances:8
sample block:
94AA  B9 8A C6 LDA LDA $C68A,Y                  A:00 X:00 Y:00 P:26 SP:F4
94AD  24 00    BIT BIT $00                      A:01 X:00 Y:00 P:24 SP:F4
94AF  F0 05    BEQ BEQ #$05                     A:01 X:00 Y:00 P:26 SP:F4
94B6  E8       INX                              A:01 X:00 Y:00 P:26 SP:F4
94B7  E0 0D    CPX CPX #$0D                     A:01 X:01 Y:00 P:24 SP:F4
94B9  F0 18    BEQ BEQ #$18                     A:01 X:01 Y:00 P:A4 SP:F4
94BB  AD 4E 07 LDA LDA $074E                    A:01 X:01 Y:00 P:A4 SP:F4
94BE  C9 02    CMP CMP #$02                     A:01 X:01 Y:00 P:24 SP:F4
94C0  D0 08    BNE BNE #$08                     A:01 X:01 Y:00 P:A4 SP:F4
94CA  C8       INY                              A:01 X:01 Y:00 P:A4 SP:F4
94CB  C0 08    CPY CPY #$08                     A:01 X:01 Y:01 P:24 SP:F4
94CD  D0 DB    BNE BNE #$DB                     A:01 X:01 Y:01 P:A4 SP:F4

<L033>  occurrences: 22  block_size:12  repeated_instances:3
sample block:
94AA  B9 8A C6 LDA LDA $C68A,Y                  A:00 X:08 Y:00 P:27 SP:F4
94AD  24 00    BIT BIT $00                      A:01 X:08 Y:00 P:25 SP:F4
94AF  F0 05    BEQ BEQ #$05                     A:01 X:08 Y:00 P:27 SP:F4
94B6  E8       INX                              A:01 X:08 Y:00 P:27 SP:F4
94B7  E0 0D    CPX CPX #$0D                     A:01 X:09 Y:00 P:25 SP:F4
94B9  F0 18    BEQ BEQ #$18                     A:01 X:09 Y:00 P:A4 SP:F4
94BB  AD 4E 07 LDA LDA $074E                    A:01 X:09 Y:00 P:A4 SP:F4
94BE  C9 02    CMP CMP #$02                     A:01 X:09 Y:00 P:24 SP:F4
94C0  D0 08    BNE BNE #$08                     A:01 X:09 Y:00 P:A4 SP:F4
94CA  C8       INY                              A:01 X:09 Y:00 P:A4 SP:F4
94CB  C0 08    CPY CPY #$08                     A:01 X:09 Y:01 P:24 SP:F4
94CD  D0 DB    BNE BNE #$DB                     A:01 X:09 Y:01 P:A4 SP:F4

<L001>  occurrences: 791  block_size:1  repeated_instances:3
sample block:
94AA  B9 8A C6 LDA LDA $C68A,Y                  A:01 X:0B Y:03 P:A4 SP:F4

<L001>  occurrences: 791  block_size:1  repeated_instances:2
sample block:
94BB  AD 4E 07 LDA LDA $074E                    A:54 X:0C Y:03 P:A4 SP:F4

<L005>  occurrences: 138  block_size:3  repeated_instances:2
sample block:
94CA  C8       INY                              A:01 X:0C Y:03 P:A4 SP:F4
94CB  C0 08    CPY CPY #$08                     A:01 X:0C Y:04 P:24 SP:F4
94CD  D0 DB    BNE BNE #$DB                     A:01 X:0C Y:04 P:A4 SP:F4

<L042>  occurrences: 12  block_size:2  repeated_instances:2
sample block:
9533  29 0F    AND AND #$0F                     A:07 X:02 Y:00 P:25 SP:F2
9535  C9 0D    CMP CMP #$0D                     A:07 X:02 Y:00 P:25 SP:F2

<L001>  occurrences: 791  block_size:1  repeated_instances:3
sample block:
95AB  A2 08    LDX LDX #$08                     A:07 X:10 Y:00 P:A4 SP:F0

<L043>  occurrences: 12  block_size:2  repeated_instances:2
sample block:
95B7  C9 0E    CMP CMP #$0E                     A:07 X:02 Y:00 P:24 SP:F0
95B9  D0 08    BNE BNE #$08                     A:07 X:02 Y:00 P:A4 SP:F0

<L001>  occurrences: 791  block_size:1  repeated_instances:3
sample block:
95EB  D0 0B    BNE BNE #$0B                     A:00 X:02 Y:01 P:26 SP:F0

<L042>  occurrences: 12  block_size:2  repeated_instances:2
sample block:
9533  29 0F    AND AND #$0F                     A:07 X:01 Y:00 P:25 SP:F2
9535  C9 0D    CMP CMP #$0D                     A:07 X:01 Y:00 P:25 SP:F2

<L001>  occurrences: 791  block_size:1  repeated_instances:3
sample block:
95AB  A2 08    LDX LDX #$08                     A:07 X:10 Y:00 P:A4 SP:F0

<L043>  occurrences: 12  block_size:2  repeated_instances:2
sample block:
95B7  C9 0E    CMP CMP #$0E                     A:07 X:01 Y:00 P:24 SP:F0
95B9  D0 08    BNE BNE #$08                     A:07 X:01 Y:00 P:A4 SP:F0

<L001>  occurrences: 791  block_size:1  repeated_instances:3
sample block:
95EB  D0 0B    BNE BNE #$0B                     A:00 X:01 Y:01 P:26 SP:F0

<L042>  occurrences: 12  block_size:2  repeated_instances:2
sample block:
9533  29 0F    AND AND #$0F                     A:07 X:00 Y:00 P:25 SP:F2
9535  C9 0D    CMP CMP #$0D                     A:07 X:00 Y:00 P:25 SP:F2

<L001>  occurrences: 791  block_size:1  repeated_instances:3
sample block:
95AB  A2 08    LDX LDX #$08                     A:07 X:10 Y:00 P:A4 SP:F0

<L043>  occurrences: 12  block_size:2  repeated_instances:2
sample block:
95B7  C9 0E    CMP CMP #$0E                     A:07 X:00 Y:00 P:26 SP:F0
95B9  D0 08    BNE BNE #$08                     A:07 X:00 Y:00 P:A4 SP:F0

<L001>  occurrences: 791  block_size:1  repeated_instances:3
sample block:
95EB  D0 0B    BNE BNE #$0B                     A:00 X:00 Y:01 P:26 SP:F0

<L058>  occurrences: 4  block_size:2  repeated_instances:2
sample block:
957E  AD 29 07 LDA LDA $0729                    A:FF X:FF Y:00 P:A4 SP:F2
9581  D0 85    BNE BNE #$85                     A:00 X:FF Y:00 P:26 SP:F2

<L010>  occurrences: 80  block_size:6  repeated_instances:2
sample block:
9BE2  4A       LSR A                            A:01 X:FF Y:00 P:24 SP:F1
9BE3  4A       LSR A                            A:00 X:FF Y:00 P:27 SP:F1
9BE6  A8       TAY                              A:00 X:FF Y:00 P:26 SP:F1
9BE7  B9 DF 9B LDA LDA $9BDF,Y                  A:00 X:FF Y:00 P:26 SP:F1
9BEA  85 07    STA STA $07                      A:05 X:FF Y:00 P:24 SP:F1
9BEC  68       PLA                              A:05 X:FF Y:00 P:24 SP:F1

<L012>  occurrences: 64  block_size:1  repeated_instances:2
sample block:
94E8  2A       ROL A                            A:00 X:00 Y:00 P:26 SP:F4

<L001>  occurrences: 791  block_size:1  repeated_instances:3
sample block:
94EA  A8       TAY                              A:00 X:00 Y:00 P:26 SP:F4

<L002>  occurrences: 396  block_size:2  repeated_instances:2
sample block:
94FA  18       CLC                              A:00 X:00 Y:00 P:26 SP:F4
94FB  69 10    ADC ADC #$10                     A:00 X:00 Y:00 P:26 SP:F4

<L012>  occurrences: 64  block_size:1  repeated_instances:2
sample block:
94E8  2A       ROL A                            A:00 X:01 Y:10 P:26 SP:F4

<L001>  occurrences: 791  block_size:1  repeated_instances:3
sample block:
94EA  A8       TAY                              A:00 X:01 Y:10 P:26 SP:F4

<L002>  occurrences: 396  block_size:2  repeated_instances:2
sample block:
94FA  18       CLC                              A:10 X:01 Y:10 P:24 SP:F4
94FB  69 10    ADC ADC #$10                     A:10 X:01 Y:10 P:24 SP:F4

<L012>  occurrences: 64  block_size:1  repeated_instances:2
sample block:
94E8  2A       ROL A                            A:00 X:02 Y:20 P:26 SP:F4

<L001>  occurrences: 791  block_size:1  repeated_instances:3
sample block:
94EA  A8       TAY                              A:00 X:02 Y:20 P:26 SP:F4

<L002>  occurrences: 396  block_size:2  repeated_instances:2
sample block:
94FA  18       CLC                              A:20 X:02 Y:20 P:24 SP:F4
94FB  69 10    ADC ADC #$10                     A:20 X:02 Y:20 P:24 SP:F4

<L012>  occurrences: 64  block_size:1  repeated_instances:2
sample block:
94E8  2A       ROL A                            A:00 X:03 Y:30 P:26 SP:F4

<L001>  occurrences: 791  block_size:1  repeated_instances:3
sample block:
94EA  A8       TAY                              A:00 X:03 Y:30 P:26 SP:F4

<L002>  occurrences: 396  block_size:2  repeated_instances:2
sample block:
94FA  18       CLC                              A:30 X:03 Y:30 P:24 SP:F4
94FB  69 10    ADC ADC #$10                     A:30 X:03 Y:30 P:24 SP:F4

<L012>  occurrences: 64  block_size:1  repeated_instances:2
sample block:
94E8  2A       ROL A                            A:00 X:04 Y:40 P:26 SP:F4

<L001>  occurrences: 791  block_size:1  repeated_instances:3
sample block:
94EA  A8       TAY                              A:00 X:04 Y:40 P:26 SP:F4

<L002>  occurrences: 396  block_size:2  repeated_instances:2
sample block:
94FA  18       CLC                              A:40 X:04 Y:40 P:24 SP:F4
94FB  69 10    ADC ADC #$10                     A:40 X:04 Y:40 P:24 SP:F4

<L012>  occurrences: 64  block_size:1  repeated_instances:2
sample block:
94E8  2A       ROL A                            A:00 X:05 Y:50 P:26 SP:F4

<L001>  occurrences: 791  block_size:1  repeated_instances:3
sample block:
94EA  A8       TAY                              A:00 X:05 Y:50 P:26 SP:F4

<L002>  occurrences: 396  block_size:2  repeated_instances:2
sample block:
94FA  18       CLC                              A:50 X:05 Y:50 P:24 SP:F4
94FB  69 10    ADC ADC #$10                     A:50 X:05 Y:50 P:24 SP:F4

<L012>  occurrences: 64  block_size:1  repeated_instances:2
sample block:
94E8  2A       ROL A                            A:00 X:06 Y:60 P:26 SP:F4

<L001>  occurrences: 791  block_size:1  repeated_instances:3
sample block:
94EA  A8       TAY                              A:00 X:06 Y:60 P:26 SP:F4

<L002>  occurrences: 396  block_size:2  repeated_instances:2
sample block:
94FA  18       CLC                              A:60 X:06 Y:60 P:24 SP:F4
94FB  69 10    ADC ADC #$10                     A:60 X:06 Y:60 P:24 SP:F4

<L012>  occurrences: 64  block_size:1  repeated_instances:2
sample block:
94E8  2A       ROL A                            A:00 X:07 Y:70 P:26 SP:F4

<L001>  occurrences: 791  block_size:1  repeated_instances:3
sample block:
94EA  A8       TAY                              A:00 X:07 Y:70 P:26 SP:F4

<L002>  occurrences: 396  block_size:2  repeated_instances:2
sample block:
94FA  18       CLC                              A:70 X:07 Y:70 P:24 SP:F4
94FB  69 10    ADC ADC #$10                     A:70 X:07 Y:70 P:24 SP:F4

<L012>  occurrences: 64  block_size:1  repeated_instances:2
sample block:
94E8  2A       ROL A                            A:00 X:08 Y:80 P:66 SP:F4

<L001>  occurrences: 791  block_size:1  repeated_instances:3
sample block:
94EA  A8       TAY                              A:00 X:08 Y:80 P:66 SP:F4

<L002>  occurrences: 396  block_size:2  repeated_instances:2
sample block:
94FA  18       CLC                              A:80 X:08 Y:80 P:E4 SP:F4
94FB  69 10    ADC ADC #$10                     A:80 X:08 Y:80 P:E4 SP:F4

<L012>  occurrences: 64  block_size:1  repeated_instances:2
sample block:
94E8  2A       ROL A                            A:00 X:09 Y:90 P:26 SP:F4

<L001>  occurrences: 791  block_size:1  repeated_instances:3
sample block:
94EA  A8       TAY                              A:00 X:09 Y:90 P:26 SP:F4

<L002>  occurrences: 396  block_size:2  repeated_instances:2
sample block:
94FA  18       CLC                              A:90 X:09 Y:90 P:A4 SP:F4
94FB  69 10    ADC ADC #$10                     A:90 X:09 Y:90 P:A4 SP:F4

<L012>  occurrences: 64  block_size:1  repeated_instances:2
sample block:
94E8  2A       ROL A                            A:00 X:0A Y:A0 P:26 SP:F4

<L001>  occurrences: 791  block_size:1  repeated_instances:3
sample block:
94EA  A8       TAY                              A:00 X:0A Y:A0 P:26 SP:F4

<L002>  occurrences: 396  block_size:2  repeated_instances:2
sample block:
94FA  18       CLC                              A:A0 X:0A Y:A0 P:A4 SP:F4
94FB  69 10    ADC ADC #$10                     A:A0 X:0A Y:A0 P:A4 SP:F4

<L012>  occurrences: 64  block_size:1  repeated_instances:2
sample block:
94E8  2A       ROL A                            A:80 X:0B Y:B0 P:A4 SP:F4

<L001>  occurrences: 791  block_size:1  repeated_instances:3
sample block:
94EA  A8       TAY                              A:01 X:0B Y:B0 P:24 SP:F4

<L002>  occurrences: 396  block_size:2  repeated_instances:2
sample block:
94FA  18       CLC                              A:B0 X:0B Y:B0 P:A5 SP:F4
94FB  69 10    ADC ADC #$10                     A:B0 X:0B Y:B0 P:A4 SP:F4

<L012>  occurrences: 64  block_size:1  repeated_instances:2
sample block:
94E8  2A       ROL A                            A:80 X:0C Y:C0 P:A4 SP:F4

<L001>  occurrences: 791  block_size:1  repeated_instances:3
sample block:
94EA  A8       TAY                              A:01 X:0C Y:C0 P:24 SP:F4

<L002>  occurrences: 396  block_size:2  repeated_instances:2
sample block:
94FA  18       CLC                              A:C0 X:0C Y:C0 P:A5 SP:F4
94FB  69 10    ADC ADC #$10                     A:C0 X:0C Y:C0 P:A4 SP:F4

<L001>  occurrences: 791  block_size:1  repeated_instances:2
sample block:
86EC  AD 1F 07 LDA LDA $071F                    A:D0 X:0D Y:D0 P:25 SP:F8

<L001>  occurrences: 791  block_size:1  repeated_instances:3
sample block:
92BA  88       DEY                              A:03 X:0D Y:03 P:25 SP:F6

<L006>  occurrences: 114  block_size:2  repeated_instances:2
sample block:
8E06  68       PLA                              A:04 X:0D Y:04 P:24 SP:F2
8E07  85 04    STA STA $04                      A:CA X:0D Y:04 P:A4 SP:F3

<L007>  occurrences: 114  block_size:3  repeated_instances:2
sample block:
8E0C  C8       INY                              A:92 X:0D Y:04 P:A4 SP:F4
8E0D  B1 04    LDA LDA ($04),Y                  A:92 X:0D Y:05 P:24 SP:F4
8E0F  85 06    STA STA $06                      A:AE X:0D Y:05 P:A4 SP:F4

<L001>  occurrences: 791  block_size:1  repeated_instances:2
sample block:
88BA  AD 21 07 LDA LDA $0721                    A:01 X:0D Y:3A P:24 SP:F4

<L001>  occurrences: 791  block_size:1  repeated_instances:3
sample block:
88CB  A9 00    LDA LDA #$00                     A:9A X:0D Y:3A P:A4 SP:F4

<L002>  occurrences: 396  block_size:2  repeated_instances:2
sample block:
88DA  2A       ROL A                            A:00 X:00 Y:3A P:26 SP:F4
88DB  2A       ROL A                            A:00 X:00 Y:3A P:26 SP:F4

<L002>  occurrences: 396  block_size:2  repeated_instances:2
sample block:
88EA  0A       ASL A                            A:00 X:00 Y:00 P:26 SP:F4
88EB  0A       ASL A                            A:00 X:00 Y:00 P:26 SP:F4

<L001>  occurrences: 791  block_size:1  repeated_instances:2
sample block:
88FB  B1 06    LDA LDA ($06),Y                  A:00 X:3A Y:00 P:24 SP:F4

<L014>  occurrences: 52  block_size:1  repeated_instances:2
sample block:
891F  46 03    LSR LSR $03                      A:00 X:3A Y:00 P:26 SP:F4

<L009>  occurrences: 104  block_size:1  repeated_instances:2
sample block:
8938  E6 00    INC INC $00                      A:00 X:3A Y:00 P:26 SP:F4

<L002>  occurrences: 396  block_size:2  repeated_instances:2
sample block:
88DA  2A       ROL A                            A:00 X:01 Y:00 P:26 SP:F4
88DB  2A       ROL A                            A:00 X:01 Y:00 P:26 SP:F4

<L002>  occurrences: 396  block_size:2  repeated_instances:2
sample block:
88EA  0A       ASL A                            A:00 X:01 Y:00 P:26 SP:F4
88EB  0A       ASL A                            A:00 X:01 Y:00 P:26 SP:F4

<L001>  occurrences: 791  block_size:1  repeated_instances:2
sample block:
88FB  B1 06    LDA LDA ($06),Y                  A:00 X:3C Y:00 P:24 SP:F4

<L009>  occurrences: 104  block_size:1  repeated_instances:2
sample block:
8938  E6 00    INC INC $00                      A:00 X:3C Y:00 P:27 SP:F4

<L002>  occurrences: 396  block_size:2  repeated_instances:2
sample block:
88DA  2A       ROL A                            A:00 X:02 Y:00 P:26 SP:F4
88DB  2A       ROL A                            A:00 X:02 Y:00 P:26 SP:F4

<L002>  occurrences: 396  block_size:2  repeated_instances:2
sample block:
88EA  0A       ASL A                            A:00 X:02 Y:00 P:26 SP:F4
88EB  0A       ASL A                            A:00 X:02 Y:00 P:26 SP:F4

<L001>  occurrences: 791  block_size:1  repeated_instances:2
sample block:
88FB  B1 06    LDA LDA ($06),Y                  A:00 X:3E Y:00 P:24 SP:F4

<L014>  occurrences: 52  block_size:1  repeated_instances:2
sample block:
891F  46 03    LSR LSR $03                      A:01 X:3E Y:01 P:24 SP:F4

<L009>  occurrences: 104  block_size:1  repeated_instances:2
sample block:
8938  E6 00    INC INC $00                      A:00 X:3E Y:01 P:26 SP:F4

<L002>  occurrences: 396  block_size:2  repeated_instances:2
sample block:
88DA  2A       ROL A                            A:00 X:03 Y:01 P:26 SP:F4
88DB  2A       ROL A                            A:00 X:03 Y:01 P:26 SP:F4

<L002>  occurrences: 396  block_size:2  repeated_instances:2
sample block:
88EA  0A       ASL A                            A:00 X:03 Y:00 P:26 SP:F4
88EB  0A       ASL A                            A:00 X:03 Y:00 P:26 SP:F4

<L001>  occurrences: 791  block_size:1  repeated_instances:2
sample block:
88FB  B1 06    LDA LDA ($06),Y                  A:00 X:40 Y:00 P:24 SP:F4

<L009>  occurrences: 104  block_size:1  repeated_instances:2
sample block:
8938  E6 00    INC INC $00                      A:00 X:40 Y:01 P:27 SP:F4

<L002>  occurrences: 396  block_size:2  repeated_instances:2
sample block:
88DA  2A       ROL A                            A:00 X:04 Y:01 P:26 SP:F4
88DB  2A       ROL A                            A:00 X:04 Y:01 P:26 SP:F4

<L002>  occurrences: 396  block_size:2  repeated_instances:2
sample block:
88EA  0A       ASL A                            A:00 X:04 Y:00 P:26 SP:F4
88EB  0A       ASL A                            A:00 X:04 Y:00 P:26 SP:F4

<L001>  occurrences: 791  block_size:1  repeated_instances:2
sample block:
88FB  B1 06    LDA LDA ($06),Y                  A:00 X:42 Y:00 P:24 SP:F4

<L014>  occurrences: 52  block_size:1  repeated_instances:2
sample block:
891F  46 03    LSR LSR $03                      A:02 X:42 Y:02 P:24 SP:F4

<L009>  occurrences: 104  block_size:1  repeated_instances:2
sample block:
8938  E6 00    INC INC $00                      A:00 X:42 Y:02 P:26 SP:F4

<L002>  occurrences: 396  block_size:2  repeated_instances:2
sample block:
88DA  2A       ROL A                            A:00 X:05 Y:02 P:26 SP:F4
88DB  2A       ROL A                            A:00 X:05 Y:02 P:26 SP:F4

<L002>  occurrences: 396  block_size:2  repeated_instances:2
sample block:
88EA  0A       ASL A                            A:00 X:05 Y:00 P:26 SP:F4
88EB  0A       ASL A                            A:00 X:05 Y:00 P:26 SP:F4

<L001>  occurrences: 791  block_size:1  repeated_instances:2
sample block:
88FB  B1 06    LDA LDA ($06),Y                  A:00 X:44 Y:00 P:24 SP:F4

<L009>  occurrences: 104  block_size:1  repeated_instances:2
sample block:
8938  E6 00    INC INC $00                      A:00 X:44 Y:02 P:27 SP:F4

<L002>  occurrences: 396  block_size:2  repeated_instances:2
sample block:
88DA  2A       ROL A                            A:00 X:06 Y:02 P:26 SP:F4
88DB  2A       ROL A                            A:00 X:06 Y:02 P:26 SP:F4

<L002>  occurrences: 396  block_size:2  repeated_instances:2
sample block:
88EA  0A       ASL A                            A:00 X:06 Y:00 P:26 SP:F4
88EB  0A       ASL A                            A:00 X:06 Y:00 P:26 SP:F4

<L001>  occurrences: 791  block_size:1  repeated_instances:2
sample block:
88FB  B1 06    LDA LDA ($06),Y                  A:00 X:46 Y:00 P:24 SP:F4

<L014>  occurrences: 52  block_size:1  repeated_instances:2
sample block:
891F  46 03    LSR LSR $03                      A:03 X:46 Y:03 P:24 SP:F4

<L009>  occurrences: 104  block_size:1  repeated_instances:2
sample block:
8938  E6 00    INC INC $00                      A:00 X:46 Y:03 P:26 SP:F4

<L002>  occurrences: 396  block_size:2  repeated_instances:2
sample block:
88DA  2A       ROL A                            A:00 X:07 Y:03 P:26 SP:F4
88DB  2A       ROL A                            A:00 X:07 Y:03 P:26 SP:F4

<L002>  occurrences: 396  block_size:2  repeated_instances:2
sample block:
88EA  0A       ASL A                            A:00 X:07 Y:00 P:26 SP:F4
88EB  0A       ASL A                            A:00 X:07 Y:00 P:26 SP:F4

<L001>  occurrences: 791  block_size:1  repeated_instances:2
sample block:
88FB  B1 06    LDA LDA ($06),Y                  A:00 X:48 Y:00 P:24 SP:F4

<L009>  occurrences: 104  block_size:1  repeated_instances:2
sample block:
8938  E6 00    INC INC $00                      A:00 X:48 Y:03 P:27 SP:F4

<L002>  occurrences: 396  block_size:2  repeated_instances:2
sample block:
88DA  2A       ROL A                            A:00 X:08 Y:03 P:26 SP:F4
88DB  2A       ROL A                            A:00 X:08 Y:03 P:26 SP:F4

<L002>  occurrences: 396  block_size:2  repeated_instances:2
sample block:
88EA  0A       ASL A                            A:00 X:08 Y:00 P:26 SP:F4
88EB  0A       ASL A                            A:00 X:08 Y:00 P:26 SP:F4

<L001>  occurrences: 791  block_size:1  repeated_instances:2
sample block:
88FB  B1 06    LDA LDA ($06),Y                  A:00 X:4A Y:00 P:24 SP:F4

<L014>  occurrences: 52  block_size:1  repeated_instances:2
sample block:
891F  46 03    LSR LSR $03                      A:04 X:4A Y:04 P:24 SP:F4

<L009>  occurrences: 104  block_size:1  repeated_instances:2
sample block:
8938  E6 00    INC INC $00                      A:00 X:4A Y:04 P:26 SP:F4

<L002>  occurrences: 396  block_size:2  repeated_instances:2
sample block:
88DA  2A       ROL A                            A:00 X:09 Y:04 P:26 SP:F4
88DB  2A       ROL A                            A:00 X:09 Y:04 P:26 SP:F4

<L002>  occurrences: 396  block_size:2  repeated_instances:2
sample block:
88EA  0A       ASL A                            A:05 X:09 Y:00 P:24 SP:F4
88EB  0A       ASL A                            A:0A X:09 Y:00 P:24 SP:F4

<L001>  occurrences: 791  block_size:1  repeated_instances:2
sample block:
88FB  B1 06    LDA LDA ($06),Y                  A:14 X:4C Y:14 P:24 SP:F4

<L009>  occurrences: 104  block_size:1  repeated_instances:2
sample block:
8938  E6 00    INC INC $00                      A:00 X:4C Y:04 P:27 SP:F4

<L002>  occurrences: 396  block_size:2  repeated_instances:2
sample block:
88DA  2A       ROL A                            A:00 X:0A Y:04 P:26 SP:F4
88DB  2A       ROL A                            A:00 X:0A Y:04 P:26 SP:F4

<L002>  occurrences: 396  block_size:2  repeated_instances:2
sample block:
88EA  0A       ASL A                            A:06 X:0A Y:00 P:24 SP:F4
88EB  0A       ASL A                            A:0C X:0A Y:00 P:24 SP:F4

<L001>  occurrences: 791  block_size:1  repeated_instances:2
sample block:
88FB  B1 06    LDA LDA ($06),Y                  A:18 X:4E Y:18 P:24 SP:F4

<L014>  occurrences: 52  block_size:1  repeated_instances:2
sample block:
891F  46 03    LSR LSR $03                      A:05 X:4E Y:05 P:24 SP:F4

<L009>  occurrences: 104  block_size:1  repeated_instances:2
sample block:
8938  E6 00    INC INC $00                      A:10 X:4E Y:05 P:24 SP:F4

<L002>  occurrences: 396  block_size:2  repeated_instances:2
sample block:
88DA  2A       ROL A                            A:80 X:0B Y:05 P:A4 SP:F4
88DB  2A       ROL A                            A:00 X:0B Y:05 P:27 SP:F4

<L002>  occurrences: 396  block_size:2  repeated_instances:2
sample block:
88EA  0A       ASL A                            A:54 X:0B Y:01 P:24 SP:F4
88EB  0A       ASL A                            A:A8 X:0B Y:01 P:A4 SP:F4

<L001>  occurrences: 791  block_size:1  repeated_instances:2
sample block:
88FB  B1 06    LDA LDA ($06),Y                  A:50 X:50 Y:50 P:24 SP:F4

<L009>  occurrences: 104  block_size:1  repeated_instances:2
sample block:
8938  E6 00    INC INC $00                      A:50 X:50 Y:05 P:25 SP:F4

<L002>  occurrences: 396  block_size:2  repeated_instances:2
sample block:
88DA  2A       ROL A                            A:80 X:0C Y:05 P:A4 SP:F4
88DB  2A       ROL A                            A:00 X:0C Y:05 P:27 SP:F4

<L002>  occurrences: 396  block_size:2  repeated_instances:2
sample block:
88EA  0A       ASL A                            A:54 X:0C Y:01 P:24 SP:F4
88EB  0A       ASL A                            A:A8 X:0C Y:01 P:A4 SP:F4

<L001>  occurrences: 791  block_size:1  repeated_instances:2
sample block:
88FB  B1 06    LDA LDA ($06),Y                  A:50 X:52 Y:50 P:24 SP:F4

<L014>  occurrences: 52  block_size:1  repeated_instances:2
sample block:
891F  46 03    LSR LSR $03                      A:06 X:52 Y:06 P:24 SP:F4

<L009>  occurrences: 104  block_size:1  repeated_instances:2
sample block:
8938  E6 00    INC INC $00                      A:05 X:52 Y:06 P:24 SP:F4

<L038>  occurrences: 14  block_size:1  repeated_instances:3
sample block:
8945  C8       INY                              A:05 X:0D Y:54 P:25 SP:F4

<L017>  occurrences: 50  block_size:1  repeated_instances:2
sample block:
8956  29 1F    AND AND #$1F                     A:83 X:0D Y:57 P:A5 SP:F4

<L001>  occurrences: 791  block_size:1  repeated_instances:2
sample block:
89BD  A9 06    LDA LDA #$06                     A:03 X:0D Y:57 P:25 SP:F4

<L001>  occurrences: 791  block_size:1  repeated_instances:2
sample block:
86EC  AD 1F 07 LDA LDA $071F                    A:06 X:0D Y:57 P:25 SP:F8

<L001>  occurrences: 791  block_size:1  repeated_instances:3
sample block:
92BA  88       DEY                              A:02 X:0D Y:02 P:25 SP:F6

<L006>  occurrences: 114  block_size:2  repeated_instances:2
sample block:
8E06  68       PLA                              A:02 X:0D Y:02 P:24 SP:F2
8E07  85 04    STA STA $04                      A:CA X:0D Y:02 P:A4 SP:F3

<L007>  occurrences: 114  block_size:3  repeated_instances:2
sample block:
8E0C  C8       INY                              A:92 X:0D Y:02 P:A4 SP:F4
8E0D  B1 04    LDA LDA ($04),Y                  A:92 X:0D Y:03 P:24 SP:F4
8E0F  85 06    STA STA $06                      A:AE X:0D Y:03 P:A4 SP:F4

<L001>  occurrences: 791  block_size:1  repeated_instances:2
sample block:
88BA  AD 21 07 LDA LDA $0721                    A:01 X:0D Y:57 P:24 SP:F4

<L001>  occurrences: 791  block_size:1  repeated_instances:3
sample block:
88CB  A9 00    LDA LDA #$00                     A:9A X:0D Y:57 P:A4 SP:F4

<L002>  occurrences: 396  block_size:2  repeated_instances:2
sample block:
88DA  2A       ROL A                            A:00 X:00 Y:57 P:26 SP:F4
88DB  2A       ROL A                            A:00 X:00 Y:57 P:26 SP:F4

<L002>  occurrences: 396  block_size:2  repeated_instances:2
sample block:
88EA  0A       ASL A                            A:00 X:00 Y:00 P:26 SP:F4
88EB  0A       ASL A                            A:00 X:00 Y:00 P:26 SP:F4

<L001>  occurrences: 791  block_size:1  repeated_instances:2
sample block:
88FB  B1 06    LDA LDA ($06),Y                  A:02 X:57 Y:02 P:24 SP:F4

<L014>  occurrences: 52  block_size:1  repeated_instances:2
sample block:
891F  46 03    LSR LSR $03                      A:00 X:57 Y:00 P:26 SP:F4

<L009>  occurrences: 104  block_size:1  repeated_instances:2
sample block:
8938  E6 00    INC INC $00                      A:00 X:57 Y:00 P:26 SP:F4

<L002>  occurrences: 396  block_size:2  repeated_instances:2
sample block:
88DA  2A       ROL A                            A:00 X:01 Y:00 P:26 SP:F4
88DB  2A       ROL A                            A:00 X:01 Y:00 P:26 SP:F4

<L002>  occurrences: 396  block_size:2  repeated_instances:2
sample block:
88EA  0A       ASL A                            A:00 X:01 Y:00 P:26 SP:F4
88EB  0A       ASL A                            A:00 X:01 Y:00 P:26 SP:F4

<L001>  occurrences: 791  block_size:1  repeated_instances:2
sample block:
88FB  B1 06    LDA LDA ($06),Y                  A:02 X:59 Y:02 P:24 SP:F4

<L009>  occurrences: 104  block_size:1  repeated_instances:2
sample block:
8938  E6 00    INC INC $00                      A:00 X:59 Y:00 P:27 SP:F4

<L002>  occurrences: 396  block_size:2  repeated_instances:2
sample block:
88DA  2A       ROL A                            A:00 X:02 Y:00 P:26 SP:F4
88DB  2A       ROL A                            A:00 X:02 Y:00 P:26 SP:F4

<L002>  occurrences: 396  block_size:2  repeated_instances:2
sample block:
88EA  0A       ASL A                            A:00 X:02 Y:00 P:26 SP:F4
88EB  0A       ASL A                            A:00 X:02 Y:00 P:26 SP:F4

<L001>  occurrences: 791  block_size:1  repeated_instances:2
sample block:
88FB  B1 06    LDA LDA ($06),Y                  A:02 X:5B Y:02 P:24 SP:F4

<L014>  occurrences: 52  block_size:1  repeated_instances:2
sample block:
891F  46 03    LSR LSR $03                      A:01 X:5B Y:01 P:24 SP:F4

<L009>  occurrences: 104  block_size:1  repeated_instances:2
sample block:
8938  E6 00    INC INC $00                      A:00 X:5B Y:01 P:26 SP:F4

<L002>  occurrences: 396  block_size:2  repeated_instances:2
sample block:
88DA  2A       ROL A                            A:00 X:03 Y:01 P:26 SP:F4
88DB  2A       ROL A                            A:00 X:03 Y:01 P:26 SP:F4

<L002>  occurrences: 396  block_size:2  repeated_instances:2
sample block:
88EA  0A       ASL A                            A:00 X:03 Y:00 P:26 SP:F4
88EB  0A       ASL A                            A:00 X:03 Y:00 P:26 SP:F4

<L001>  occurrences: 791  block_size:1  repeated_instances:2
sample block:
88FB  B1 06    LDA LDA ($06),Y                  A:02 X:5D Y:02 P:24 SP:F4

<L009>  occurrences: 104  block_size:1  repeated_instances:2
sample block:
8938  E6 00    INC INC $00                      A:00 X:5D Y:01 P:27 SP:F4

<L002>  occurrences: 396  block_size:2  repeated_instances:2
sample block:
88DA  2A       ROL A                            A:00 X:04 Y:01 P:26 SP:F4
88DB  2A       ROL A                            A:00 X:04 Y:01 P:26 SP:F4

<L002>  occurrences: 396  block_size:2  repeated_instances:2
sample block:
88EA  0A       ASL A                            A:00 X:04 Y:00 P:26 SP:F4
88EB  0A       ASL A                            A:00 X:04 Y:00 P:26 SP:F4

<L001>  occurrences: 791  block_size:1  repeated_instances:2
sample block:
88FB  B1 06    LDA LDA ($06),Y                  A:02 X:5F Y:02 P:24 SP:F4

<L014>  occurrences: 52  block_size:1  repeated_instances:2
sample block:
891F  46 03    LSR LSR $03                      A:02 X:5F Y:02 P:24 SP:F4

<L009>  occurrences: 104  block_size:1  repeated_instances:2
sample block:
8938  E6 00    INC INC $00                      A:00 X:5F Y:02 P:26 SP:F4

<L002>  occurrences: 396  block_size:2  repeated_instances:2
sample block:
88DA  2A       ROL A                            A:00 X:05 Y:02 P:26 SP:F4
88DB  2A       ROL A                            A:00 X:05 Y:02 P:26 SP:F4

<L002>  occurrences: 396  block_size:2  repeated_instances:2
sample block:
88EA  0A       ASL A                            A:00 X:05 Y:00 P:26 SP:F4
88EB  0A       ASL A                            A:00 X:05 Y:00 P:26 SP:F4

<L001>  occurrences: 791  block_size:1  repeated_instances:2
sample block:
88FB  B1 06    LDA LDA ($06),Y                  A:02 X:61 Y:02 P:24 SP:F4

<L009>  occurrences: 104  block_size:1  repeated_instances:2
sample block:
8938  E6 00    INC INC $00                      A:00 X:61 Y:02 P:27 SP:F4

<L002>  occurrences: 396  block_size:2  repeated_instances:2
sample block:
88DA  2A       ROL A                            A:00 X:06 Y:02 P:26 SP:F4
88DB  2A       ROL A                            A:00 X:06 Y:02 P:26 SP:F4

<L002>  occurrences: 396  block_size:2  repeated_instances:2
sample block:
88EA  0A       ASL A                            A:00 X:06 Y:00 P:26 SP:F4
88EB  0A       ASL A                            A:00 X:06 Y:00 P:26 SP:F4

<L001>  occurrences: 791  block_size:1  repeated_instances:2
sample block:
88FB  B1 06    LDA LDA ($06),Y                  A:02 X:63 Y:02 P:24 SP:F4

<L014>  occurrences: 52  block_size:1  repeated_instances:2
sample block:
891F  46 03    LSR LSR $03                      A:03 X:63 Y:03 P:24 SP:F4

<L009>  occurrences: 104  block_size:1  repeated_instances:2
sample block:
8938  E6 00    INC INC $00                      A:00 X:63 Y:03 P:26 SP:F4

<L002>  occurrences: 396  block_size:2  repeated_instances:2
sample block:
88DA  2A       ROL A                            A:00 X:07 Y:03 P:26 SP:F4
88DB  2A       ROL A                            A:00 X:07 Y:03 P:26 SP:F4

<L002>  occurrences: 396  block_size:2  repeated_instances:2
sample block:
88EA  0A       ASL A                            A:00 X:07 Y:00 P:26 SP:F4
88EB  0A       ASL A                            A:00 X:07 Y:00 P:26 SP:F4

<L001>  occurrences: 791  block_size:1  repeated_instances:2
sample block:
88FB  B1 06    LDA LDA ($06),Y                  A:02 X:65 Y:02 P:24 SP:F4

<L009>  occurrences: 104  block_size:1  repeated_instances:2
sample block:
8938  E6 00    INC INC $00                      A:00 X:65 Y:03 P:27 SP:F4

<L002>  occurrences: 396  block_size:2  repeated_instances:2
sample block:
88DA  2A       ROL A                            A:00 X:08 Y:03 P:26 SP:F4
88DB  2A       ROL A                            A:00 X:08 Y:03 P:26 SP:F4

<L002>  occurrences: 396  block_size:2  repeated_instances:2
sample block:
88EA  0A       ASL A                            A:00 X:08 Y:00 P:26 SP:F4
88EB  0A       ASL A                            A:00 X:08 Y:00 P:26 SP:F4

<L001>  occurrences: 791  block_size:1  repeated_instances:2
sample block:
88FB  B1 06    LDA LDA ($06),Y                  A:02 X:67 Y:02 P:24 SP:F4

<L014>  occurrences: 52  block_size:1  repeated_instances:2
sample block:
891F  46 03    LSR LSR $03                      A:04 X:67 Y:04 P:24 SP:F4

<L009>  occurrences: 104  block_size:1  repeated_instances:2
sample block:
8938  E6 00    INC INC $00                      A:00 X:67 Y:04 P:26 SP:F4

<L002>  occurrences: 396  block_size:2  repeated_instances:2
sample block:
88DA  2A       ROL A                            A:00 X:09 Y:04 P:26 SP:F4
88DB  2A       ROL A                            A:00 X:09 Y:04 P:26 SP:F4

<L002>  occurrences: 396  block_size:2  repeated_instances:2
sample block:
88EA  0A       ASL A                            A:05 X:09 Y:00 P:24 SP:F4
88EB  0A       ASL A                            A:0A X:09 Y:00 P:24 SP:F4

<L001>  occurrences: 791  block_size:1  repeated_instances:2
sample block:
88FB  B1 06    LDA LDA ($06),Y                  A:16 X:69 Y:16 P:24 SP:F4

<L009>  occurrences: 104  block_size:1  repeated_instances:2
sample block:
8938  E6 00    INC INC $00                      A:00 X:69 Y:04 P:27 SP:F4

<L002>  occurrences: 396  block_size:2  repeated_instances:2
sample block:
88DA  2A       ROL A                            A:00 X:0A Y:04 P:26 SP:F4
88DB  2A       ROL A                            A:00 X:0A Y:04 P:26 SP:F4

<L002>  occurrences: 396  block_size:2  repeated_instances:2
sample block:
88EA  0A       ASL A                            A:06 X:0A Y:00 P:24 SP:F4
88EB  0A       ASL A                            A:0C X:0A Y:00 P:24 SP:F4

<L001>  occurrences: 791  block_size:1  repeated_instances:2
sample block:
88FB  B1 06    LDA LDA ($06),Y                  A:1A X:6B Y:1A P:24 SP:F4

<L014>  occurrences: 52  block_size:1  repeated_instances:2
sample block:
891F  46 03    LSR LSR $03                      A:05 X:6B Y:05 P:24 SP:F4

<L009>  occurrences: 104  block_size:1  repeated_instances:2
sample block:
8938  E6 00    INC INC $00                      A:50 X:6B Y:05 P:24 SP:F4

<L002>  occurrences: 396  block_size:2  repeated_instances:2
sample block:
88DA  2A       ROL A                            A:80 X:0B Y:05 P:A4 SP:F4
88DB  2A       ROL A                            A:00 X:0B Y:05 P:27 SP:F4

<L002>  occurrences: 396  block_size:2  repeated_instances:2
sample block:
88EA  0A       ASL A                            A:54 X:0B Y:01 P:24 SP:F4
88EB  0A       ASL A                            A:A8 X:0B Y:01 P:A4 SP:F4

<L001>  occurrences: 791  block_size:1  repeated_instances:2
sample block:
88FB  B1 06    LDA LDA ($06),Y                  A:52 X:6D Y:52 P:24 SP:F4

<L009>  occurrences: 104  block_size:1  repeated_instances:2
sample block:
8938  E6 00    INC INC $00                      A:50 X:6D Y:05 P:25 SP:F4

<L002>  occurrences: 396  block_size:2  repeated_instances:2
sample block:
88DA  2A       ROL A                            A:80 X:0C Y:05 P:A4 SP:F4
88DB  2A       ROL A                            A:00 X:0C Y:05 P:27 SP:F4

<L002>  occurrences: 396  block_size:2  repeated_instances:2
sample block:
88EA  0A       ASL A                            A:54 X:0C Y:01 P:24 SP:F4
88EB  0A       ASL A                            A:A8 X:0C Y:01 P:A4 SP:F4

<L001>  occurrences: 791  block_size:1  repeated_instances:2
sample block:
88FB  B1 06    LDA LDA ($06),Y                  A:52 X:6F Y:52 P:24 SP:F4

<L014>  occurrences: 52  block_size:1  repeated_instances:2
sample block:
891F  46 03    LSR LSR $03                      A:06 X:6F Y:06 P:24 SP:F4

<L009>  occurrences: 104  block_size:1  repeated_instances:2
sample block:
8938  E6 00    INC INC $00                      A:05 X:6F Y:06 P:24 SP:F4

<L038>  occurrences: 14  block_size:1  repeated_instances:3
sample block:
8945  C8       INY                              A:05 X:0D Y:71 P:25 SP:F4

<L017>  occurrences: 50  block_size:1  repeated_instances:2
sample block:
8956  29 1F    AND AND #$1F                     A:84 X:0D Y:74 P:A5 SP:F4

<L001>  occurrences: 791  block_size:1  repeated_instances:2
sample block:
89BD  A9 06    LDA LDA #$06                     A:04 X:0D Y:74 P:25 SP:F4

<L001>  occurrences: 791  block_size:1  repeated_instances:2
sample block:
86EC  AD 1F 07 LDA LDA $071F                    A:06 X:0D Y:74 P:25 SP:F8

<L001>  occurrences: 791  block_size:1  repeated_instances:3
sample block:
92BA  88       DEY                              A:01 X:0D Y:01 P:25 SP:F6

<L006>  occurrences: 114  block_size:2  repeated_instances:2
sample block:
8E06  68       PLA                              A:00 X:0D Y:00 P:26 SP:F2
8E07  85 04    STA STA $04                      A:CA X:0D Y:00 P:A4 SP:F3

<L007>  occurrences: 114  block_size:3  repeated_instances:2
sample block:
8E0C  C8       INY                              A:92 X:0D Y:00 P:A4 SP:F4
8E0D  B1 04    LDA LDA ($04),Y                  A:92 X:0D Y:01 P:24 SP:F4
8E0F  85 06    STA STA $06                      A:DB X:0D Y:01 P:A4 SP:F4

<L001>  occurrences: 791  block_size:1  repeated_instances:2
sample block:
92DB  EE 26 07 INC INC $0726                    A:92 X:0D Y:02 P:A4 SP:F4

<L017>  occurrences: 50  block_size:1  repeated_instances:2
sample block:
92E1  29 0F    AND AND #$0F                     A:02 X:0D Y:02 P:24 SP:F4

<L001>  occurrences: 791  block_size:1  repeated_instances:2
sample block:
92EB  EE A0 06 INC INC $06A0                    A:02 X:0D Y:02 P:24 SP:F4

<L024>  occurrences: 34  block_size:1  repeated_instances:2
sample block:
8985  4A       LSR A                            A:00 X:0D Y:02 P:27 SP:F4

<L001>  occurrences: 791  block_size:1  repeated_instances:2
sample block:
89AA  4A       LSR A                            A:01 X:00 Y:74 P:24 SP:F4

<L001>  occurrences: 791  block_size:1  repeated_instances:2
sample block:
89AE  C8       INY                              A:00 X:00 Y:74 P:27 SP:F4

<L001>  occurrences: 791  block_size:1  repeated_instances:2
sample block:
89AA  4A       LSR A                            A:01 X:01 Y:78 P:24 SP:F4

<L001>  occurrences: 791  block_size:1  repeated_instances:2
sample block:
89AE  C8       INY                              A:00 X:01 Y:78 P:27 SP:F4

<L001>  occurrences: 791  block_size:1  repeated_instances:2
sample block:
89AA  4A       LSR A                            A:01 X:02 Y:7C P:24 SP:F4

<L001>  occurrences: 791  block_size:1  repeated_instances:2
sample block:
89AE  C8       INY                              A:00 X:02 Y:7C P:27 SP:F4

<L001>  occurrences: 791  block_size:1  repeated_instances:2
sample block:
89AA  4A       LSR A                            A:01 X:03 Y:80 P:24 SP:F4

<L001>  occurrences: 791  block_size:1  repeated_instances:2
sample block:
89AE  C8       INY                              A:00 X:03 Y:80 P:27 SP:F4

<L001>  occurrences: 791  block_size:1  repeated_instances:2
sample block:
89AA  4A       LSR A                            A:01 X:04 Y:84 P:24 SP:F4

<L001>  occurrences: 791  block_size:1  repeated_instances:2
sample block:
89AE  C8       INY                              A:00 X:04 Y:84 P:27 SP:F4

<L001>  occurrences: 791  block_size:1  repeated_instances:2
sample block:
89AA  4A       LSR A                            A:01 X:05 Y:88 P:24 SP:F4

<L001>  occurrences: 791  block_size:1  repeated_instances:2
sample block:
89AE  C8       INY                              A:00 X:05 Y:88 P:27 SP:F4

<L001>  occurrences: 791  block_size:1  repeated_instances:2
sample block:
89AA  4A       LSR A                            A:01 X:06 Y:8C P:24 SP:F4

<L001>  occurrences: 791  block_size:1  repeated_instances:2
sample block:
89AE  C8       INY                              A:00 X:06 Y:8C P:27 SP:F4

<L001>  occurrences: 791  block_size:1  repeated_instances:3
sample block:
89BA  8C 40 03 STY STY $0340                    A:00 X:07 Y:90 P:27 SP:F4

<L071>  occurrences: 2  block_size:1  repeated_instances:2
sample block:
89C2  60       RTS                              A:06 X:07 Y:90 P:25 SP:F4

<L001>  occurrences: 791  block_size:1  repeated_instances:2
sample block:
86EC  AD 1F 07 LDA LDA $071F                    A:06 X:07 Y:90 P:25 SP:F8

<L001>  occurrences: 791  block_size:1  repeated_instances:2
sample block:
86FB  8D 73 07 STA STA $0773                    A:06 X:07 Y:90 P:25 SP:F8

<L026>  occurrences: 30  block_size:5  repeated_instances:2
sample block:
FFF3  1A       *NOP                             A:90 X:07 Y:90 P:A4 SP:FE
FFF4  1C 1D 1D *NOP *NOP $1D1D,X                A:90 X:07 Y:90 P:A4 SP:FE
FFF7  1E 1E 1F ASL ASL $1F1E,X                  A:90 X:07 Y:90 P:A4 SP:FE
FFFA  82 80    *NOP *NOP #$80                   A:90 X:07 Y:90 P:26 SP:FE
FFFC  00       BRK                              A:90 X:07 Y:90 P:26 SP:FE

<L011>  occurrences: 64  block_size:2  repeated_instances:2
sample block:
8085  29 7F    AND AND #$7F                     A:10 X:07 Y:90 P:24 SP:B3
8087  8D 78 07 STA STA $0778                    A:10 X:07 Y:90 P:24 SP:B3

<L011>  occurrences: 64  block_size:2  repeated_instances:2
sample block:
8097  D0 05    BNE BNE #$05                     A:00 X:07 Y:02 P:24 SP:B3
809E  8D 79 07 STA STA $0779                    A:00 X:07 Y:02 P:24 SP:B3

<L002>  occurrences: 396  block_size:2  repeated_instances:2
sample block:
80AB  20 E6 8E JSR JSR $8EE6                    A:00 X:80 Y:02 P:26 SP:B3
8EE6  8D 05 20 STA STA $2005                    A:00 X:80 Y:02 P:26 SP:B1

<L001>  occurrences: 791  block_size:1  repeated_instances:2
sample block:
80BC  85 00    STA STA $00                      A:41 X:06 Y:02 P:24 SP:B3

<L002>  occurrences: 396  block_size:2  repeated_instances:2
sample block:
8EDD  AE 02 20 LDX LDX $2002                    A:03 X:06 Y:02 P:24 SP:B1
8EE0  A0 00    LDY LDY #$00                     A:03 X:00 Y:02 P:26 SP:B1

<L008>  occurrences: 106  block_size:3  repeated_instances:2
sample block:
8E92  8D 06 20 STA STA $2006                    A:20 X:00 Y:00 P:24 SP:B1
8E95  C8       INY                              A:20 X:00 Y:00 P:24 SP:B1
8E96  B1 00    LDA LDA ($00),Y                  A:20 X:00 Y:01 P:24 SP:B1

<L044>  occurrences: 12  block_size:7  repeated_instances:2
sample block:
8EA0  AD 78 07 LDA LDA $0778                    A:34 X:00 Y:02 P:25 SP:B0
8EA3  09 04    ORA ORA #$04                     A:10 X:00 Y:02 P:25 SP:B0
8EA5  B0 02    BCS BCS #$02                     A:14 X:00 Y:02 P:25 SP:B0
8EA9  20 ED 8E JSR JSR $8EED                    A:14 X:00 Y:02 P:25 SP:B0
8EED  8D 00 20 STA STA $2000                    A:14 X:00 Y:02 P:25 SP:AE
8EF0  8D 78 07 STA STA $0778                    A:14 X:00 Y:02 P:25 SP:AE
8EF3  60       RTS                              A:14 X:00 Y:02 P:25 SP:AE

<L003>  occurrences: 238  block_size:12  repeated_instances:4
sample block:
8EB9  B1 00    LDA LDA ($00),Y                  A:1A X:1A Y:03 P:24 SP:B1
8EBB  8D 07 20 STA STA $2007                    A:24 X:1A Y:03 P:24 SP:B1
8EBE  CA       DEX                              A:24 X:1A Y:03 P:24 SP:B1
8EBF  D0 F5    BNE BNE #$F5                     A:24 X:19 Y:03 P:24 SP:B1
8EB6  B0 01    BCS BCS #$01                     A:24 X:19 Y:03 P:24 SP:B1
8EB8  C8       INY                              A:24 X:19 Y:03 P:24 SP:B1
8EB9  B1 00    LDA LDA ($00),Y                  A:24 X:05 Y:18 P:24 SP:B1
8EBB  8D 07 20 STA STA $2007                    A:30 X:05 Y:18 P:24 SP:B1
8EBE  CA       DEX                              A:30 X:05 Y:18 P:24 SP:B1
8EBF  D0 F5    BNE BNE #$F5                     A:30 X:04 Y:18 P:24 SP:B1
8EB6  B0 01    BCS BCS #$01                     A:30 X:04 Y:18 P:24 SP:B1
8EB8  C8       INY                              A:30 X:04 Y:18 P:24 SP:B1

<L001>  occurrences: 791  block_size:1  repeated_instances:3
sample block:
8EE0  A0 00    LDY LDY #$00                     A:00 X:00 Y:1C P:26 SP:B1

<L008>  occurrences: 106  block_size:3  repeated_instances:2
sample block:
8E92  8D 06 20 STA STA $2006                    A:20 X:00 Y:00 P:24 SP:B1
8E95  C8       INY                              A:20 X:00 Y:00 P:24 SP:B1
8E96  B1 00    LDA LDA ($00),Y                  A:20 X:00 Y:01 P:24 SP:B1

<L044>  occurrences: 12  block_size:7  repeated_instances:2
sample block:
8EA0  AD 78 07 LDA LDA $0778                    A:34 X:00 Y:02 P:25 SP:B0
8EA3  09 04    ORA ORA #$04                     A:14 X:00 Y:02 P:25 SP:B0
8EA5  B0 02    BCS BCS #$02                     A:14 X:00 Y:02 P:25 SP:B0
8EA9  20 ED 8E JSR JSR $8EED                    A:14 X:00 Y:02 P:25 SP:B0
8EED  8D 00 20 STA STA $2000                    A:14 X:00 Y:02 P:25 SP:AE
8EF0  8D 78 07 STA STA $0778                    A:14 X:00 Y:02 P:25 SP:AE
8EF3  60       RTS                              A:14 X:00 Y:02 P:25 SP:AE

<L003>  occurrences: 238  block_size:12  repeated_instances:4
sample block:
8EB9  B1 00    LDA LDA ($00),Y                  A:1A X:1A Y:03 P:24 SP:B1
8EBB  8D 07 20 STA STA $2007                    A:24 X:1A Y:03 P:24 SP:B1
8EBE  CA       DEX                              A:24 X:1A Y:03 P:24 SP:B1
8EBF  D0 F5    BNE BNE #$F5                     A:24 X:19 Y:03 P:24 SP:B1
8EB6  B0 01    BCS BCS #$01                     A:24 X:19 Y:03 P:24 SP:B1
8EB8  C8       INY                              A:24 X:19 Y:03 P:24 SP:B1
8EB9  B1 00    LDA LDA ($00),Y                  A:24 X:06 Y:17 P:24 SP:B1
8EBB  8D 07 20 STA STA $2007                    A:30 X:06 Y:17 P:24 SP:B1
8EBE  CA       DEX                              A:30 X:06 Y:17 P:24 SP:B1
8EBF  D0 F5    BNE BNE #$F5                     A:30 X:05 Y:17 P:24 SP:B1
8EB6  B0 01    BCS BCS #$01                     A:30 X:05 Y:17 P:24 SP:B1
8EB8  C8       INY                              A:30 X:05 Y:17 P:24 SP:B1

<L018>  occurrences: 46  block_size:4  repeated_instances:2
sample block:
8ECF  8D 06 20 STA STA $2006                    A:3F X:00 Y:1C P:24 SP:B1
8ED2  A9 00    LDA LDA #$00                     A:3F X:00 Y:1C P:24 SP:B1
8ED4  8D 06 20 STA STA $2006                    A:00 X:00 Y:1C P:26 SP:B1
8ED7  8D 06 20 STA STA $2006                    A:00 X:00 Y:1C P:26 SP:B1

<L008>  occurrences: 106  block_size:3  repeated_instances:2
sample block:
8E92  8D 06 20 STA STA $2006                    A:20 X:00 Y:00 P:24 SP:B1
8E95  C8       INY                              A:20 X:00 Y:00 P:24 SP:B1
8E96  B1 00    LDA LDA ($00),Y                  A:20 X:00 Y:01 P:24 SP:B1

<L044>  occurrences: 12  block_size:7  repeated_instances:2
sample block:
8EA0  AD 78 07 LDA LDA $0778                    A:34 X:00 Y:02 P:25 SP:B0
8EA3  09 04    ORA ORA #$04                     A:14 X:00 Y:02 P:25 SP:B0
8EA5  B0 02    BCS BCS #$02                     A:14 X:00 Y:02 P:25 SP:B0
8EA9  20 ED 8E JSR JSR $8EED                    A:14 X:00 Y:02 P:25 SP:B0
8EED  8D 00 20 STA STA $2000                    A:14 X:00 Y:02 P:25 SP:AE
8EF0  8D 78 07 STA STA $0778                    A:14 X:00 Y:02 P:25 SP:AE
8EF3  60       RTS                              A:14 X:00 Y:02 P:25 SP:AE

<L010>  occurrences: 80  block_size:6  repeated_instances:2
sample block:
8EB9  B1 00    LDA LDA ($00),Y                  A:1A X:1A Y:03 P:24 SP:B1
8EBB  8D 07 20 STA STA $2007                    A:24 X:1A Y:03 P:24 SP:B1
8EBE  CA       DEX                              A:24 X:1A Y:03 P:24 SP:B1
8EBF  D0 F5    BNE BNE #$F5                     A:24 X:19 Y:03 P:24 SP:B1
8EB6  B0 01    BCS BCS #$01                     A:24 X:19 Y:03 P:24 SP:B1
8EB8  C8       INY                              A:24 X:19 Y:03 P:24 SP:B1

<L003>  occurrences: 238  block_size:12  repeated_instances:3
sample block:
8EB9  B1 00    LDA LDA ($00),Y                  A:30 X:06 Y:17 P:24 SP:B1
8EBB  8D 07 20 STA STA $2007                    A:26 X:06 Y:17 P:24 SP:B1
8EBE  CA       DEX                              A:26 X:06 Y:17 P:24 SP:B1
8EBF  D0 F5    BNE BNE #$F5                     A:26 X:05 Y:17 P:24 SP:B1
8EB6  B0 01    BCS BCS #$01                     A:26 X:05 Y:17 P:24 SP:B1
8EB8  C8       INY                              A:26 X:05 Y:17 P:24 SP:B1
8EB9  B1 00    LDA LDA ($00),Y                  A:26 X:04 Y:19 P:24 SP:B1
8EBB  8D 07 20 STA STA $2007                    A:B4 X:04 Y:19 P:A4 SP:B1
8EBE  CA       DEX                              A:B4 X:04 Y:19 P:A4 SP:B1
8EBF  D0 F5    BNE BNE #$F5                     A:B4 X:03 Y:19 P:24 SP:B1
8EB6  B0 01    BCS BCS #$01                     A:B4 X:03 Y:19 P:24 SP:B1
8EB8  C8       INY                              A:B4 X:03 Y:19 P:24 SP:B1

<L018>  occurrences: 46  block_size:4  repeated_instances:2
sample block:
8ECF  8D 06 20 STA STA $2006                    A:3F X:00 Y:1C P:24 SP:B1
8ED2  A9 00    LDA LDA #$00                     A:3F X:00 Y:1C P:24 SP:B1
8ED4  8D 06 20 STA STA $2006                    A:00 X:00 Y:1C P:26 SP:B1
8ED7  8D 06 20 STA STA $2006                    A:00 X:00 Y:1C P:26 SP:B1

<L008>  occurrences: 106  block_size:3  repeated_instances:2
sample block:
8E92  8D 06 20 STA STA $2006                    A:20 X:00 Y:00 P:24 SP:B1
8E95  C8       INY                              A:20 X:00 Y:00 P:24 SP:B1
8E96  B1 00    LDA LDA ($00),Y                  A:20 X:00 Y:01 P:24 SP:B1

<L044>  occurrences: 12  block_size:7  repeated_instances:2
sample block:
8EA0  AD 78 07 LDA LDA $0778                    A:34 X:00 Y:02 P:25 SP:B0
8EA3  09 04    ORA ORA #$04                     A:14 X:00 Y:02 P:25 SP:B0
8EA5  B0 02    BCS BCS #$02                     A:14 X:00 Y:02 P:25 SP:B0
8EA9  20 ED 8E JSR JSR $8EED                    A:14 X:00 Y:02 P:25 SP:B0
8EED  8D 00 20 STA STA $2000                    A:14 X:00 Y:02 P:25 SP:AE
8EF0  8D 78 07 STA STA $0778                    A:14 X:00 Y:02 P:25 SP:AE
8EF3  60       RTS                              A:14 X:00 Y:02 P:25 SP:AE

<L003>  occurrences: 238  block_size:12  repeated_instances:5
sample block:
8EB9  B1 00    LDA LDA ($00),Y                  A:1A X:1A Y:03 P:24 SP:B1
8EBB  8D 07 20 STA STA $2007                    A:24 X:1A Y:03 P:24 SP:B1
8EBE  CA       DEX                              A:24 X:1A Y:03 P:24 SP:B1
8EBF  D0 F5    BNE BNE #$F5                     A:24 X:19 Y:03 P:24 SP:B1
8EB6  B0 01    BCS BCS #$01                     A:24 X:19 Y:03 P:24 SP:B1
8EB8  C8       INY                              A:24 X:19 Y:03 P:24 SP:B1
8EB9  B1 00    LDA LDA ($00),Y                  A:24 X:08 Y:15 P:24 SP:B1
8EBB  8D 07 20 STA STA $2007                    A:30 X:08 Y:15 P:24 SP:B1
8EBE  CA       DEX                              A:30 X:08 Y:15 P:24 SP:B1
8EBF  D0 F5    BNE BNE #$F5                     A:30 X:07 Y:15 P:24 SP:B1
8EB6  B0 01    BCS BCS #$01                     A:30 X:07 Y:15 P:24 SP:B1
8EB8  C8       INY                              A:30 X:07 Y:15 P:24 SP:B1

<L018>  occurrences: 46  block_size:4  repeated_instances:2
sample block:
8ECF  8D 06 20 STA STA $2006                    A:3F X:00 Y:1C P:24 SP:B1
8ED2  A9 00    LDA LDA #$00                     A:3F X:00 Y:1C P:24 SP:B1
8ED4  8D 06 20 STA STA $2006                    A:00 X:00 Y:1C P:26 SP:B1
8ED7  8D 06 20 STA STA $2006                    A:00 X:00 Y:1C P:26 SP:B1

<L008>  occurrences: 106  block_size:3  repeated_instances:2
sample block:
8E92  8D 06 20 STA STA $2006                    A:23 X:00 Y:00 P:24 SP:B1
8E95  C8       INY                              A:23 X:00 Y:00 P:24 SP:B1
8E96  B1 00    LDA LDA ($00),Y                  A:23 X:00 Y:01 P:24 SP:B1

<L003>  occurrences: 238  block_size:12  repeated_instances:3
sample block:
8EA0  AD 78 07 LDA LDA $0778                    A:02 X:00 Y:02 P:24 SP:B0
8EA3  09 04    ORA ORA #$04                     A:14 X:00 Y:02 P:24 SP:B0
8EA5  B0 02    BCS BCS #$02                     A:14 X:00 Y:02 P:24 SP:B0
8EA7  29 FB    AND AND #$FB                     A:14 X:00 Y:02 P:24 SP:B0
8EA9  20 ED 8E JSR JSR $8EED                    A:10 X:00 Y:02 P:24 SP:B0
8EED  8D 00 20 STA STA $2000                    A:10 X:00 Y:02 P:24 SP:AE
8EF0  8D 78 07 STA STA $0778                    A:10 X:00 Y:02 P:24 SP:AE
8EF3  60       RTS                              A:10 X:00 Y:02 P:24 SP:AE
8EAC  68       PLA                              A:10 X:00 Y:02 P:24 SP:B0
8EAD  0A       ASL A                            A:02 X:00 Y:02 P:24 SP:B1
8EAE  90 03    BCC BCC #$03                     A:04 X:00 Y:02 P:24 SP:B1
8EB3  4A       LSR A                            A:04 X:00 Y:02 P:24 SP:B1

<L008>  occurrences: 106  block_size:3  repeated_instances:2
sample block:
8E92  8D 06 20 STA STA $2006                    A:23 X:00 Y:00 P:24 SP:B1
8E95  C8       INY                              A:23 X:00 Y:00 P:24 SP:B1
8E96  B1 00    LDA LDA ($00),Y                  A:23 X:00 Y:01 P:24 SP:B1

<L003>  occurrences: 238  block_size:12  repeated_instances:3
sample block:
8EA0  AD 78 07 LDA LDA $0778                    A:02 X:00 Y:02 P:24 SP:B0
8EA3  09 04    ORA ORA #$04                     A:10 X:00 Y:02 P:24 SP:B0
8EA5  B0 02    BCS BCS #$02                     A:14 X:00 Y:02 P:24 SP:B0
8EA7  29 FB    AND AND #$FB                     A:14 X:00 Y:02 P:24 SP:B0
8EA9  20 ED 8E JSR JSR $8EED                    A:10 X:00 Y:02 P:24 SP:B0
8EED  8D 00 20 STA STA $2000                    A:10 X:00 Y:02 P:24 SP:AE
8EF0  8D 78 07 STA STA $0778                    A:10 X:00 Y:02 P:24 SP:AE
8EF3  60       RTS                              A:10 X:00 Y:02 P:24 SP:AE
8EAC  68       PLA                              A:10 X:00 Y:02 P:24 SP:B0
8EAD  0A       ASL A                            A:02 X:00 Y:02 P:24 SP:B1
8EAE  90 03    BCC BCC #$03                     A:04 X:00 Y:02 P:24 SP:B1
8EB3  4A       LSR A                            A:04 X:00 Y:02 P:24 SP:B1

<L008>  occurrences: 106  block_size:3  repeated_instances:2
sample block:
8E92  8D 06 20 STA STA $2006                    A:23 X:00 Y:00 P:24 SP:B1
8E95  C8       INY                              A:23 X:00 Y:00 P:24 SP:B1
8E96  B1 00    LDA LDA ($00),Y                  A:23 X:00 Y:01 P:24 SP:B1

<L003>  occurrences: 238  block_size:12  repeated_instances:3
sample block:
8EA0  AD 78 07 LDA LDA $0778                    A:02 X:00 Y:02 P:24 SP:B0
8EA3  09 04    ORA ORA #$04                     A:10 X:00 Y:02 P:24 SP:B0
8EA5  B0 02    BCS BCS #$02                     A:14 X:00 Y:02 P:24 SP:B0
8EA7  29 FB    AND AND #$FB                     A:14 X:00 Y:02 P:24 SP:B0
8EA9  20 ED 8E JSR JSR $8EED                    A:10 X:00 Y:02 P:24 SP:B0
8EED  8D 00 20 STA STA $2000                    A:10 X:00 Y:02 P:24 SP:AE
8EF0  8D 78 07 STA STA $0778                    A:10 X:00 Y:02 P:24 SP:AE
8EF3  60       RTS                              A:10 X:00 Y:02 P:24 SP:AE
8EAC  68       PLA                              A:10 X:00 Y:02 P:24 SP:B0
8EAD  0A       ASL A                            A:02 X:00 Y:02 P:24 SP:B1
8EAE  90 03    BCC BCC #$03                     A:04 X:00 Y:02 P:24 SP:B1
8EB3  4A       LSR A                            A:04 X:00 Y:02 P:24 SP:B1

<L008>  occurrences: 106  block_size:3  repeated_instances:2
sample block:
8E92  8D 06 20 STA STA $2006                    A:23 X:00 Y:00 P:24 SP:B1
8E95  C8       INY                              A:23 X:00 Y:00 P:24 SP:B1
8E96  B1 00    LDA LDA ($00),Y                  A:23 X:00 Y:01 P:24 SP:B1

<L003>  occurrences: 238  block_size:12  repeated_instances:3
sample block:
8EA0  AD 78 07 LDA LDA $0778                    A:02 X:00 Y:02 P:24 SP:B0
8EA3  09 04    ORA ORA #$04                     A:10 X:00 Y:02 P:24 SP:B0
8EA5  B0 02    BCS BCS #$02                     A:14 X:00 Y:02 P:24 SP:B0
8EA7  29 FB    AND AND #$FB                     A:14 X:00 Y:02 P:24 SP:B0
8EA9  20 ED 8E JSR JSR $8EED                    A:10 X:00 Y:02 P:24 SP:B0
8EED  8D 00 20 STA STA $2000                    A:10 X:00 Y:02 P:24 SP:AE
8EF0  8D 78 07 STA STA $0778                    A:10 X:00 Y:02 P:24 SP:AE
8EF3  60       RTS                              A:10 X:00 Y:02 P:24 SP:AE
8EAC  68       PLA                              A:10 X:00 Y:02 P:24 SP:B0
8EAD  0A       ASL A                            A:02 X:00 Y:02 P:24 SP:B1
8EAE  90 03    BCC BCC #$03                     A:04 X:00 Y:02 P:24 SP:B1
8EB3  4A       LSR A                            A:04 X:00 Y:02 P:24 SP:B1

<L008>  occurrences: 106  block_size:3  repeated_instances:2
sample block:
8E92  8D 06 20 STA STA $2006                    A:23 X:00 Y:00 P:24 SP:B1
8E95  C8       INY                              A:23 X:00 Y:00 P:24 SP:B1
8E96  B1 00    LDA LDA ($00),Y                  A:23 X:00 Y:01 P:24 SP:B1

<L003>  occurrences: 238  block_size:12  repeated_instances:3
sample block:
8EA0  AD 78 07 LDA LDA $0778                    A:02 X:00 Y:02 P:24 SP:B0
8EA3  09 04    ORA ORA #$04                     A:10 X:00 Y:02 P:24 SP:B0
8EA5  B0 02    BCS BCS #$02                     A:14 X:00 Y:02 P:24 SP:B0
8EA7  29 FB    AND AND #$FB                     A:14 X:00 Y:02 P:24 SP:B0
8EA9  20 ED 8E JSR JSR $8EED                    A:10 X:00 Y:02 P:24 SP:B0
8EED  8D 00 20 STA STA $2000                    A:10 X:00 Y:02 P:24 SP:AE
8EF0  8D 78 07 STA STA $0778                    A:10 X:00 Y:02 P:24 SP:AE
8EF3  60       RTS                              A:10 X:00 Y:02 P:24 SP:AE
8EAC  68       PLA                              A:10 X:00 Y:02 P:24 SP:B0
8EAD  0A       ASL A                            A:02 X:00 Y:02 P:24 SP:B1
8EAE  90 03    BCC BCC #$03                     A:04 X:00 Y:02 P:24 SP:B1
8EB3  4A       LSR A                            A:04 X:00 Y:02 P:24 SP:B1

<L008>  occurrences: 106  block_size:3  repeated_instances:2
sample block:
8E92  8D 06 20 STA STA $2006                    A:23 X:00 Y:00 P:24 SP:B1
8E95  C8       INY                              A:23 X:00 Y:00 P:24 SP:B1
8E96  B1 00    LDA LDA ($00),Y                  A:23 X:00 Y:01 P:24 SP:B1

<L003>  occurrences: 238  block_size:12  repeated_instances:3
sample block:
8EA0  AD 78 07 LDA LDA $0778                    A:02 X:00 Y:02 P:24 SP:B0
8EA3  09 04    ORA ORA #$04                     A:10 X:00 Y:02 P:24 SP:B0
8EA5  B0 02    BCS BCS #$02                     A:14 X:00 Y:02 P:24 SP:B0
8EA7  29 FB    AND AND #$FB                     A:14 X:00 Y:02 P:24 SP:B0
8EA9  20 ED 8E JSR JSR $8EED                    A:10 X:00 Y:02 P:24 SP:B0
8EED  8D 00 20 STA STA $2000                    A:10 X:00 Y:02 P:24 SP:AE
8EF0  8D 78 07 STA STA $0778                    A:10 X:00 Y:02 P:24 SP:AE
8EF3  60       RTS                              A:10 X:00 Y:02 P:24 SP:AE
8EAC  68       PLA                              A:10 X:00 Y:02 P:24 SP:B0
8EAD  0A       ASL A                            A:02 X:00 Y:02 P:24 SP:B1
8EAE  90 03    BCC BCC #$03                     A:04 X:00 Y:02 P:24 SP:B1
8EB3  4A       LSR A                            A:04 X:00 Y:02 P:24 SP:B1

<L008>  occurrences: 106  block_size:3  repeated_instances:2
sample block:
8E92  8D 06 20 STA STA $2006                    A:23 X:00 Y:00 P:24 SP:B1
8E95  C8       INY                              A:23 X:00 Y:00 P:24 SP:B1
8E96  B1 00    LDA LDA ($00),Y                  A:23 X:00 Y:01 P:24 SP:B1

<L003>  occurrences: 238  block_size:12  repeated_instances:3
sample block:
8EA0  AD 78 07 LDA LDA $0778                    A:02 X:00 Y:02 P:24 SP:B0
8EA3  09 04    ORA ORA #$04                     A:10 X:00 Y:02 P:24 SP:B0
8EA5  B0 02    BCS BCS #$02                     A:14 X:00 Y:02 P:24 SP:B0
8EA7  29 FB    AND AND #$FB                     A:14 X:00 Y:02 P:24 SP:B0
8EA9  20 ED 8E JSR JSR $8EED                    A:10 X:00 Y:02 P:24 SP:B0
8EED  8D 00 20 STA STA $2000                    A:10 X:00 Y:02 P:24 SP:AE
8EF0  8D 78 07 STA STA $0778                    A:10 X:00 Y:02 P:24 SP:AE
8EF3  60       RTS                              A:10 X:00 Y:02 P:24 SP:AE
8EAC  68       PLA                              A:10 X:00 Y:02 P:24 SP:B0
8EAD  0A       ASL A                            A:02 X:00 Y:02 P:24 SP:B1
8EAE  90 03    BCC BCC #$03                     A:04 X:00 Y:02 P:24 SP:B1
8EB3  4A       LSR A                            A:04 X:00 Y:02 P:24 SP:B1

<L002>  occurrences: 396  block_size:2  repeated_instances:2
sample block:
8EE4  D0 AC    BNE BNE #$AC                     A:00 X:00 Y:00 P:26 SP:B1
8EE6  8D 05 20 STA STA $2005                    A:00 X:00 Y:00 P:26 SP:B1

<L001>  occurrences: 791  block_size:1  repeated_instances:3
sample block:
80CB  E0 06    CPX CPX #$06                     A:00 X:06 Y:00 P:24 SP:B3

<L022>  occurrences: 34  block_size:1  repeated_instances:2
sample block:
80D5  9D 00 03 STA STA $0300,X                  A:00 X:40 Y:01 P:27 SP:B3

<L001>  occurrences: 791  block_size:1  repeated_instances:2
sample block:
80DB  8D 73 07 STA STA $0773                    A:00 X:40 Y:01 P:27 SP:B3

<L010>  occurrences: 80  block_size:6  repeated_instances:2
sample block:
8FA1  BD DD 07 LDA LDA $07DD,X                  A:00 X:05 Y:05 P:25 SP:AF
8FA4  F9 D7 07 SBC SBC $07D7,Y                  A:00 X:05 Y:05 P:27 SP:AF
8FA7  CA       DEX                              A:00 X:05 Y:05 P:27 SP:AF
8FA8  88       DEY                              A:00 X:04 Y:05 P:25 SP:AF
8FA9  10 F6    BPL BPL #$F6                     A:00 X:04 Y:04 P:25 SP:AF
8FA1  BD DD 07 LDA LDA $07DD,X                  A:00 X:04 Y:04 P:25 SP:AF

<L005>  occurrences: 138  block_size:3  repeated_instances:2
sample block:
8FAF  BD DD 07 LDA LDA $07DD,X                  A:00 X:00 Y:00 P:27 SP:AF
8FB2  99 D7 07 STA STA $07D7,Y                  A:00 X:00 Y:00 P:27 SP:AF
8FB5  E8       INX                              A:00 X:00 Y:00 P:27 SP:AF

<L010>  occurrences: 80  block_size:6  repeated_instances:2
sample block:
8FA1  BD DD 07 LDA LDA $07DD,X                  A:00 X:0B Y:05 P:25 SP:B1
8FA4  F9 D7 07 SBC SBC $07D7,Y                  A:00 X:0B Y:05 P:27 SP:B1
8FA7  CA       DEX                              A:00 X:0B Y:05 P:27 SP:B1
8FA8  88       DEY                              A:00 X:0A Y:05 P:25 SP:B1
8FA9  10 F6    BPL BPL #$F6                     A:00 X:0A Y:04 P:25 SP:B1
8FA1  BD DD 07 LDA LDA $07DD,X                  A:00 X:0A Y:04 P:25 SP:B1

<L005>  occurrences: 138  block_size:3  repeated_instances:2
sample block:
8FAF  BD DD 07 LDA LDA $07DD,X                  A:00 X:06 Y:00 P:27 SP:B1
8FB2  99 D7 07 STA STA $07D7,Y                  A:00 X:06 Y:00 P:27 SP:B1
8FB5  E8       INX                              A:00 X:06 Y:00 P:27 SP:B1

<L016>  occurrences: 50  block_size:4  repeated_instances:3
sample block:
810E  BD 80 07 LDA LDA $0780,X                  A:00 X:14 Y:06 P:24 SP:B3
8111  F0 03    BEQ BEQ #$03                     A:00 X:14 Y:06 P:26 SP:B3
8116  CA       DEX                              A:00 X:14 Y:06 P:26 SP:B3
8117  10 F5    BPL BPL #$F5                     A:00 X:13 Y:06 P:24 SP:B3

<L015>  occurrences: 51  block_size:4  repeated_instances:3
sample block:
8131  7E A7 07 ROR ROR $07A7,X                  A:02 X:00 Y:07 P:25 SP:B3
8134  E8       INX                              A:02 X:00 Y:07 P:A4 SP:B3
8135  88       DEY                              A:02 X:01 Y:07 P:24 SP:B3
8136  D0 F9    BNE BNE #$F9                     A:02 X:01 Y:06 P:24 SP:B3

<L023>  occurrences: 34  block_size:2  repeated_instances:2
sample block:
815C  AD 3F 07 LDA LDA $073F                    A:00 X:07 Y:00 P:26 SP:B3
815F  8D 05 20 STA STA $2005                    A:00 X:07 Y:00 P:26 SP:B3

<L006>  occurrences: 114  block_size:2  repeated_instances:2
sample block:
8E06  68       PLA                              A:00 X:07 Y:00 P:26 SP:AE
8E07  85 04    STA STA $04                      A:17 X:07 Y:00 P:24 SP:AF

<L007>  occurrences: 114  block_size:3  repeated_instances:2
sample block:
8E0C  C8       INY                              A:82 X:07 Y:00 P:A4 SP:B0
8E0D  B1 04    LDA LDA ($04),Y                  A:82 X:07 Y:01 P:24 SP:B0
8E0F  85 06    STA STA $06                      A:31 X:07 Y:01 P:24 SP:B0

<L006>  occurrences: 114  block_size:2  repeated_instances:2
sample block:
8E06  68       PLA                              A:02 X:07 Y:02 P:24 SP:AE
8E07  85 04    STA STA $04                      A:36 X:07 Y:02 P:24 SP:AF

<L007>  occurrences: 114  block_size:3  repeated_instances:2
sample block:
8E0C  C8       INY                              A:82 X:07 Y:02 P:A4 SP:B0
8E0D  B1 04    LDA LDA ($04),Y                  A:82 X:07 Y:03 P:24 SP:B0
8E0F  85 06    STA STA $06                      A:67 X:07 Y:03 P:24 SP:B0

<L006>  occurrences: 114  block_size:2  repeated_instances:2
sample block:
8E06  68       PLA                              A:12 X:07 Y:12 P:24 SP:AE
8E07  85 04    STA STA $04                      A:6C X:07 Y:12 P:24 SP:AF

<L007>  occurrences: 114  block_size:3  repeated_instances:2
sample block:
8E0C  C8       INY                              A:85 X:07 Y:12 P:A4 SP:B0
8E0D  B1 04    LDA LDA ($04),Y                  A:85 X:07 Y:13 P:24 SP:B0
8E0F  85 06    STA STA $06                      A:BF X:07 Y:13 P:A4 SP:B0

<L026>  occurrences: 30  block_size:5  repeated_instances:2
sample block:
FFF0  19 19 1A ORA ORA $1A19,Y                  A:90 X:02 Y:01 P:26 SP:B6
FFF3  1A       *NOP                             A:90 X:02 Y:01 P:A4 SP:B6
FFF4  1C 1D 1D *NOP *NOP $1D1D,X                A:90 X:02 Y:01 P:A4 SP:B6
FFF7  1E 1E 1F ASL ASL $1F1E,X                  A:90 X:02 Y:01 P:A4 SP:B6
FFFA  82 80    *NOP *NOP #$80                   A:90 X:02 Y:01 P:24 SP:B6

<L011>  occurrences: 64  block_size:2  repeated_instances:2
sample block:
8085  29 7F    AND AND #$7F                     A:10 X:02 Y:01 P:24 SP:A9
8087  8D 78 07 STA STA $0778                    A:10 X:02 Y:01 P:24 SP:A9

<L011>  occurrences: 64  block_size:2  repeated_instances:2
sample block:
8097  D0 05    BNE BNE #$05                     A:00 X:02 Y:02 P:24 SP:A9
809E  8D 79 07 STA STA $0779                    A:00 X:02 Y:02 P:24 SP:A9

<L002>  occurrences: 396  block_size:2  repeated_instances:2
sample block:
80AB  20 E6 8E JSR JSR $8EE6                    A:00 X:80 Y:02 P:26 SP:A9
8EE6  8D 05 20 STA STA $2005                    A:00 X:80 Y:02 P:26 SP:A7

<L001>  occurrences: 791  block_size:1  repeated_instances:2
sample block:
80BC  85 00    STA STA $00                      A:C8 X:02 Y:02 P:A4 SP:A9

<L002>  occurrences: 396  block_size:2  repeated_instances:2
sample block:
8EDD  AE 02 20 LDX LDX $2002                    A:8C X:02 Y:02 P:A4 SP:A7
8EE0  A0 00    LDY LDY #$00                     A:8C X:00 Y:02 P:26 SP:A7

<L008>  occurrences: 106  block_size:3  repeated_instances:2
sample block:
8E92  8D 06 20 STA STA $2006                    A:3F X:00 Y:00 P:24 SP:A7
8E95  C8       INY                              A:3F X:00 Y:00 P:24 SP:A7
8E96  B1 00    LDA LDA ($00),Y                  A:3F X:00 Y:01 P:24 SP:A7

<L003>  occurrences: 238  block_size:12  repeated_instances:2
sample block:
8EA0  AD 78 07 LDA LDA $0778                    A:40 X:00 Y:02 P:24 SP:A6
8EA3  09 04    ORA ORA #$04                     A:10 X:00 Y:02 P:24 SP:A6
8EA5  B0 02    BCS BCS #$02                     A:14 X:00 Y:02 P:24 SP:A6
8EA7  29 FB    AND AND #$FB                     A:14 X:00 Y:02 P:24 SP:A6
8EA9  20 ED 8E JSR JSR $8EED                    A:10 X:00 Y:02 P:24 SP:A6
8EED  8D 00 20 STA STA $2000                    A:10 X:00 Y:02 P:24 SP:A4
8EF0  8D 78 07 STA STA $0778                    A:10 X:00 Y:02 P:24 SP:A4
8EF3  60       RTS                              A:10 X:00 Y:02 P:24 SP:A4
8EAC  68       PLA                              A:10 X:00 Y:02 P:24 SP:A6
8EAD  0A       ASL A                            A:40 X:00 Y:02 P:24 SP:A7
8EAE  90 03    BCC BCC #$03                     A:80 X:00 Y:02 P:A4 SP:A7
8EB3  4A       LSR A                            A:80 X:00 Y:02 P:A4 SP:A7

<L026>  occurrences: 30  block_size:5  repeated_instances:2
sample block:
8EBE  CA       DEX                              A:29 X:1F Y:04 P:24 SP:A7
8EBF  D0 F5    BNE BNE #$F5                     A:29 X:1E Y:04 P:24 SP:A7
8EB6  B0 01    BCS BCS #$01                     A:29 X:1E Y:04 P:24 SP:A7
8EB8  C8       INY                              A:29 X:1E Y:04 P:24 SP:A7
8EB9  B1 00    LDA LDA ($00),Y                  A:29 X:1E Y:05 P:24 SP:A7

<L039>  occurrences: 14  block_size:9  repeated_instances:2
sample block:
8EB9  B1 00    LDA LDA ($00),Y                  A:1A X:1D Y:06 P:24 SP:A7
8EBB  8D 07 20 STA STA $2007                    A:0F X:1D Y:06 P:24 SP:A7
8EBE  CA       DEX                              A:0F X:1D Y:06 P:24 SP:A7
8EBF  D0 F5    BNE BNE #$F5                     A:0F X:1C Y:06 P:24 SP:A7
8EB6  B0 01    BCS BCS #$01                     A:0F X:1C Y:06 P:24 SP:A7
8EB8  C8       INY                              A:0F X:1C Y:06 P:24 SP:A7
8EB9  B1 00    LDA LDA ($00),Y                  A:0F X:1B Y:08 P:24 SP:A7
8EBB  8D 07 20 STA STA $2007                    A:36 X:1B Y:08 P:24 SP:A7
8EBE  CA       DEX                              A:36 X:1B Y:08 P:24 SP:A7

<L039>  occurrences: 14  block_size:9  repeated_instances:2
sample block:
8EB9  B1 00    LDA LDA ($00),Y                  A:17 X:19 Y:0A P:24 SP:A7
8EBB  8D 07 20 STA STA $2007                    A:0F X:19 Y:0A P:24 SP:A7
8EBE  CA       DEX                              A:0F X:19 Y:0A P:24 SP:A7
8EBF  D0 F5    BNE BNE #$F5                     A:0F X:18 Y:0A P:24 SP:A7
8EB6  B0 01    BCS BCS #$01                     A:0F X:18 Y:0A P:24 SP:A7
8EB8  C8       INY                              A:0F X:18 Y:0A P:24 SP:A7
8EB9  B1 00    LDA LDA ($00),Y                  A:0F X:17 Y:0C P:24 SP:A7
8EBB  8D 07 20 STA STA $2007                    A:30 X:17 Y:0C P:24 SP:A7
8EBE  CA       DEX                              A:30 X:17 Y:0C P:24 SP:A7

<L039>  occurrences: 14  block_size:9  repeated_instances:2
sample block:
8EB9  B1 00    LDA LDA ($00),Y                  A:21 X:15 Y:0E P:24 SP:A7
8EBB  8D 07 20 STA STA $2007                    A:0F X:15 Y:0E P:24 SP:A7
8EBE  CA       DEX                              A:0F X:15 Y:0E P:24 SP:A7
8EBF  D0 F5    BNE BNE #$F5                     A:0F X:14 Y:0E P:24 SP:A7
8EB6  B0 01    BCS BCS #$01                     A:0F X:14 Y:0E P:24 SP:A7
8EB8  C8       INY                              A:0F X:14 Y:0E P:24 SP:A7
8EB9  B1 00    LDA LDA ($00),Y                  A:0F X:13 Y:10 P:24 SP:A7
8EBB  8D 07 20 STA STA $2007                    A:27 X:13 Y:10 P:24 SP:A7
8EBE  CA       DEX                              A:27 X:13 Y:10 P:24 SP:A7

<L003>  occurrences: 238  block_size:12  repeated_instances:6
sample block:
8EB9  B1 00    LDA LDA ($00),Y                  A:17 X:11 Y:12 P:24 SP:A7
8EBB  8D 07 20 STA STA $2007                    A:0F X:11 Y:12 P:24 SP:A7
8EBE  CA       DEX                              A:0F X:11 Y:12 P:24 SP:A7
8EBF  D0 F5    BNE BNE #$F5                     A:0F X:10 Y:12 P:24 SP:A7
8EB6  B0 01    BCS BCS #$01                     A:0F X:10 Y:12 P:24 SP:A7
8EB8  C8       INY                              A:0F X:10 Y:12 P:24 SP:A7
8EB9  B1 00    LDA LDA ($00),Y                  A:0F X:0F Y:14 P:24 SP:A7
8EBB  8D 07 20 STA STA $2007                    A:16 X:0F Y:14 P:24 SP:A7
8EBE  CA       DEX                              A:16 X:0F Y:14 P:24 SP:A7
8EBF  D0 F5    BNE BNE #$F5                     A:16 X:0E Y:14 P:24 SP:A7
8EB6  B0 01    BCS BCS #$01                     A:16 X:0E Y:14 P:24 SP:A7
8EB8  C8       INY                              A:16 X:0E Y:14 P:24 SP:A7

<L003>  occurrences: 238  block_size:12  repeated_instances:3
sample block:
8EB9  B1 00    LDA LDA ($00),Y                  A:27 X:04 Y:1F P:24 SP:A7
8EBB  8D 07 20 STA STA $2007                    A:0F X:04 Y:1F P:24 SP:A7
8EBE  CA       DEX                              A:0F X:04 Y:1F P:24 SP:A7
8EBF  D0 F5    BNE BNE #$F5                     A:0F X:03 Y:1F P:24 SP:A7
8EB6  B0 01    BCS BCS #$01                     A:0F X:03 Y:1F P:24 SP:A7
8EB8  C8       INY                              A:0F X:03 Y:1F P:24 SP:A7
8EB9  B1 00    LDA LDA ($00),Y                  A:0F X:02 Y:21 P:24 SP:A7
8EBB  8D 07 20 STA STA $2007                    A:36 X:02 Y:21 P:24 SP:A7
8EBE  CA       DEX                              A:36 X:02 Y:21 P:24 SP:A7
8EBF  D0 F5    BNE BNE #$F5                     A:36 X:01 Y:21 P:24 SP:A7
8EB6  B0 01    BCS BCS #$01                     A:36 X:01 Y:21 P:24 SP:A7
8EB8  C8       INY                              A:36 X:01 Y:21 P:24 SP:A7

<L001>  occurrences: 791  block_size:1  repeated_instances:2
sample block:
80CB  E0 06    CPX CPX #$06                     A:00 X:02 Y:00 P:24 SP:A9

<L022>  occurrences: 34  block_size:1  repeated_instances:2
sample block:
80D5  9D 00 03 STA STA $0300,X                  A:00 X:00 Y:00 P:26 SP:A9

<L001>  occurrences: 791  block_size:1  repeated_instances:2
sample block:
80DB  8D 73 07 STA STA $0773                    A:00 X:00 Y:00 P:26 SP:A9

<L010>  occurrences: 80  block_size:6  repeated_instances:2
sample block:
8FA1  BD DD 07 LDA LDA $07DD,X                  A:00 X:05 Y:05 P:25 SP:A5
8FA4  F9 D7 07 SBC SBC $07D7,Y                  A:00 X:05 Y:05 P:27 SP:A5
8FA7  CA       DEX                              A:00 X:05 Y:05 P:27 SP:A5
8FA8  88       DEY                              A:00 X:04 Y:05 P:25 SP:A5
8FA9  10 F6    BPL BPL #$F6                     A:00 X:04 Y:04 P:25 SP:A5
8FA1  BD DD 07 LDA LDA $07DD,X                  A:00 X:04 Y:04 P:25 SP:A5

<L005>  occurrences: 138  block_size:3  repeated_instances:2
sample block:
8FAF  BD DD 07 LDA LDA $07DD,X                  A:00 X:00 Y:00 P:27 SP:A5
8FB2  99 D7 07 STA STA $07D7,Y                  A:00 X:00 Y:00 P:27 SP:A5
8FB5  E8       INX                              A:00 X:00 Y:00 P:27 SP:A5

<L010>  occurrences: 80  block_size:6  repeated_instances:2
sample block:
8FA1  BD DD 07 LDA LDA $07DD,X                  A:00 X:0B Y:05 P:25 SP:A7
8FA4  F9 D7 07 SBC SBC $07D7,Y                  A:00 X:0B Y:05 P:27 SP:A7
8FA7  CA       DEX                              A:00 X:0B Y:05 P:27 SP:A7
8FA8  88       DEY                              A:00 X:0A Y:05 P:25 SP:A7
8FA9  10 F6    BPL BPL #$F6                     A:00 X:0A Y:04 P:25 SP:A7
8FA1  BD DD 07 LDA LDA $07DD,X                  A:00 X:0A Y:04 P:25 SP:A7

<L005>  occurrences: 138  block_size:3  repeated_instances:2
sample block:
8FAF  BD DD 07 LDA LDA $07DD,X                  A:00 X:06 Y:00 P:27 SP:A7
8FB2  99 D7 07 STA STA $07D7,Y                  A:00 X:06 Y:00 P:27 SP:A7
8FB5  E8       INX                              A:00 X:06 Y:00 P:27 SP:A7

<L016>  occurrences: 50  block_size:4  repeated_instances:3
sample block:
810E  BD 80 07 LDA LDA $0780,X                  A:00 X:14 Y:06 P:24 SP:A9
8111  F0 03    BEQ BEQ #$03                     A:00 X:14 Y:06 P:26 SP:A9
8116  CA       DEX                              A:00 X:14 Y:06 P:26 SP:A9
8117  10 F5    BPL BPL #$F5                     A:00 X:13 Y:06 P:24 SP:A9

<L015>  occurrences: 51  block_size:4  repeated_instances:3
sample block:
8131  7E A7 07 ROR ROR $07A7,X                  A:02 X:00 Y:07 P:25 SP:A9
8134  E8       INX                              A:02 X:00 Y:07 P:A5 SP:A9
8135  88       DEY                              A:02 X:01 Y:07 P:25 SP:A9
8136  D0 F9    BNE BNE #$F9                     A:02 X:01 Y:06 P:25 SP:A9

<L023>  occurrences: 34  block_size:2  repeated_instances:2
sample block:
815C  AD 3F 07 LDA LDA $073F                    A:00 X:07 Y:00 P:26 SP:A9
815F  8D 05 20 STA STA $2005                    A:00 X:07 Y:00 P:26 SP:A9

<L006>  occurrences: 114  block_size:2  repeated_instances:2
sample block:
8E06  68       PLA                              A:00 X:07 Y:00 P:26 SP:A4
8E07  85 04    STA STA $04                      A:17 X:07 Y:00 P:24 SP:A5

<L007>  occurrences: 114  block_size:3  repeated_instances:2
sample block:
8E0C  C8       INY                              A:82 X:07 Y:00 P:A4 SP:A6
8E0D  B1 04    LDA LDA ($04),Y                  A:82 X:07 Y:01 P:24 SP:A6
8E0F  85 06    STA STA $06                      A:31 X:07 Y:01 P:24 SP:A6

<L006>  occurrences: 114  block_size:2  repeated_instances:2
sample block:
8E06  68       PLA                              A:02 X:07 Y:02 P:24 SP:A4
8E07  85 04    STA STA $04                      A:36 X:07 Y:02 P:24 SP:A5

<L007>  occurrences: 114  block_size:3  repeated_instances:2
sample block:
8E0C  C8       INY                              A:82 X:07 Y:02 P:A4 SP:A6
8E0D  B1 04    LDA LDA ($04),Y                  A:82 X:07 Y:03 P:24 SP:A6
8E0F  85 06    STA STA $06                      A:67 X:07 Y:03 P:24 SP:A6

<L006>  occurrences: 114  block_size:2  repeated_instances:2
sample block:
8E06  68       PLA                              A:14 X:07 Y:14 P:24 SP:A4
8E07  85 04    STA STA $04                      A:6C X:07 Y:14 P:24 SP:A5

<L007>  occurrences: 114  block_size:3  repeated_instances:2
sample block:
8E0C  C8       INY                              A:85 X:07 Y:14 P:A4 SP:A6
8E0D  B1 04    LDA LDA ($04),Y                  A:85 X:07 Y:15 P:24 SP:A6
8E0F  85 06    STA STA $06                      A:E3 X:07 Y:15 P:A4 SP:A6

<L049>  occurrences: 8  block_size:12  repeated_instances:2
sample block:
860A  B9 D7 85 LDA LDA $85D7,Y                  A:03 X:00 Y:00 P:24 SP:A6
860D  9D 04 03 STA STA $0304,X                  A:22 X:00 Y:00 P:24 SP:A6
8610  C8       INY                              A:22 X:00 Y:00 P:24 SP:A6
8611  E8       INX                              A:22 X:00 Y:01 P:24 SP:A6
8612  C6 00    DEC DEC $00                      A:22 X:01 Y:01 P:24 SP:A6
8614  10 F4    BPL BPL #$F4                     A:22 X:01 Y:01 P:24 SP:A6
860A  B9 D7 85 LDA LDA $85D7,Y                  A:22 X:01 Y:01 P:24 SP:A6
860D  9D 04 03 STA STA $0304,X                  A:16 X:01 Y:01 P:24 SP:A6
8610  C8       INY                              A:16 X:01 Y:01 P:24 SP:A6
8611  E8       INX                              A:16 X:01 Y:02 P:24 SP:A6
8612  C6 00    DEC DEC $00                      A:16 X:02 Y:02 P:24 SP:A6
8614  10 F4    BPL BPL #$F4                     A:16 X:02 Y:02 P:24 SP:A6

<L053>  occurrences: 6  block_size:4  repeated_instances:2
sample block:
8624  9D 04 03 STA STA $0304,X                  A:22 X:00 Y:01 P:24 SP:A6
8627  A9 3F    LDA LDA #$3F                     A:22 X:00 Y:01 P:24 SP:A6
8629  9D 01 03 STA STA $0301,X                  A:3F X:00 Y:01 P:24 SP:A6
862C  A9 10    LDA LDA #$10                     A:3F X:00 Y:01 P:24 SP:A6

<L018>  occurrences: 46  block_size:4  repeated_instances:2
sample block:
FFFA  82 80    *NOP *NOP #$80                   A:90 X:00 Y:01 P:26 SP:AC
FFFC  00       BRK                              A:90 X:00 Y:01 P:26 SP:AC
FFF0  19 19 1A ORA ORA $1A19,Y                  A:90 X:00 Y:01 P:26 SP:A9
FFF3  1A       *NOP                             A:90 X:00 Y:01 P:A4 SP:A9

<L011>  occurrences: 64  block_size:2  repeated_instances:2
sample block:
8085  29 7F    AND AND #$7F                     A:10 X:00 Y:01 P:24 SP:7C
8087  8D 78 07 STA STA $0778                    A:10 X:00 Y:01 P:24 SP:7C

<L011>  occurrences: 64  block_size:2  repeated_instances:2
sample block:
8097  D0 05    BNE BNE #$05                     A:00 X:00 Y:02 P:24 SP:7C
809E  8D 79 07 STA STA $0779                    A:00 X:00 Y:02 P:24 SP:7C

<L002>  occurrences: 396  block_size:2  repeated_instances:2
sample block:
80AB  20 E6 8E JSR JSR $8EE6                    A:00 X:80 Y:02 P:26 SP:7C
8EE6  8D 05 20 STA STA $2005                    A:00 X:80 Y:02 P:26 SP:7A

<L001>  occurrences: 791  block_size:1  repeated_instances:2
sample block:
80BC  85 00    STA STA $00                      A:01 X:00 Y:02 P:24 SP:7C

<L002>  occurrences: 396  block_size:2  repeated_instances:2
sample block:
8EDD  AE 02 20 LDX LDX $2002                    A:03 X:00 Y:02 P:24 SP:7A
8EE0  A0 00    LDY LDY #$00                     A:03 X:00 Y:02 P:26 SP:7A

<L008>  occurrences: 106  block_size:3  repeated_instances:2
sample block:
8E92  8D 06 20 STA STA $2006                    A:3F X:00 Y:00 P:24 SP:7A
8E95  C8       INY                              A:3F X:00 Y:00 P:24 SP:7A
8E96  B1 00    LDA LDA ($00),Y                  A:3F X:00 Y:01 P:24 SP:7A

<L003>  occurrences: 238  block_size:12  repeated_instances:4
sample block:
8EA0  AD 78 07 LDA LDA $0778                    A:08 X:00 Y:02 P:24 SP:79
8EA3  09 04    ORA ORA #$04                     A:10 X:00 Y:02 P:24 SP:79
8EA5  B0 02    BCS BCS #$02                     A:14 X:00 Y:02 P:24 SP:79
8EA7  29 FB    AND AND #$FB                     A:14 X:00 Y:02 P:24 SP:79
8EA9  20 ED 8E JSR JSR $8EED                    A:10 X:00 Y:02 P:24 SP:79
8EED  8D 00 20 STA STA $2000                    A:10 X:00 Y:02 P:24 SP:77
8EF0  8D 78 07 STA STA $0778                    A:10 X:00 Y:02 P:24 SP:77
8EF3  60       RTS                              A:10 X:00 Y:02 P:24 SP:77
8EAC  68       PLA                              A:10 X:00 Y:02 P:24 SP:79
8EAD  0A       ASL A                            A:08 X:00 Y:02 P:24 SP:7A
8EAE  90 03    BCC BCC #$03                     A:10 X:00 Y:02 P:24 SP:7A
8EB3  4A       LSR A                            A:10 X:00 Y:02 P:24 SP:7A

<L026>  occurrences: 30  block_size:5  repeated_instances:2
sample block:
8ED4  8D 06 20 STA STA $2006                    A:00 X:00 Y:06 P:26 SP:7A
8ED7  8D 06 20 STA STA $2006                    A:00 X:00 Y:06 P:26 SP:7A
8EDA  8D 06 20 STA STA $2006                    A:00 X:00 Y:06 P:26 SP:7A
8EDD  AE 02 20 LDX LDX $2002                    A:00 X:00 Y:06 P:26 SP:7A
8EE0  A0 00    LDY LDY #$00                     A:00 X:00 Y:06 P:26 SP:7A

<L001>  occurrences: 791  block_size:1  repeated_instances:2
sample block:
80CB  E0 06    CPX CPX #$06                     A:00 X:00 Y:00 P:26 SP:7C

<L022>  occurrences: 34  block_size:1  repeated_instances:2
sample block:
80D5  9D 00 03 STA STA $0300,X                  A:00 X:00 Y:00 P:26 SP:7C

<L001>  occurrences: 791  block_size:1  repeated_instances:2
sample block:
80DB  8D 73 07 STA STA $0773                    A:00 X:00 Y:00 P:26 SP:7C

<L010>  occurrences: 80  block_size:6  repeated_instances:2
sample block:
8FA1  BD DD 07 LDA LDA $07DD,X                  A:00 X:05 Y:05 P:25 SP:78
8FA4  F9 D7 07 SBC SBC $07D7,Y                  A:00 X:05 Y:05 P:27 SP:78
8FA7  CA       DEX                              A:00 X:05 Y:05 P:27 SP:78
8FA8  88       DEY                              A:00 X:04 Y:05 P:25 SP:78
8FA9  10 F6    BPL BPL #$F6                     A:00 X:04 Y:04 P:25 SP:78
8FA1  BD DD 07 LDA LDA $07DD,X                  A:00 X:04 Y:04 P:25 SP:78

<L005>  occurrences: 138  block_size:3  repeated_instances:2
sample block:
8FAF  BD DD 07 LDA LDA $07DD,X                  A:00 X:00 Y:00 P:27 SP:78
8FB2  99 D7 07 STA STA $07D7,Y                  A:00 X:00 Y:00 P:27 SP:78
8FB5  E8       INX                              A:00 X:00 Y:00 P:27 SP:78

<L010>  occurrences: 80  block_size:6  repeated_instances:2
sample block:
8FA1  BD DD 07 LDA LDA $07DD,X                  A:00 X:0B Y:05 P:25 SP:7A
8FA4  F9 D7 07 SBC SBC $07D7,Y                  A:00 X:0B Y:05 P:27 SP:7A
8FA7  CA       DEX                              A:00 X:0B Y:05 P:27 SP:7A
8FA8  88       DEY                              A:00 X:0A Y:05 P:25 SP:7A
8FA9  10 F6    BPL BPL #$F6                     A:00 X:0A Y:04 P:25 SP:7A
8FA1  BD DD 07 LDA LDA $07DD,X                  A:00 X:0A Y:04 P:25 SP:7A

<L005>  occurrences: 138  block_size:3  repeated_instances:2
sample block:
8FAF  BD DD 07 LDA LDA $07DD,X                  A:00 X:06 Y:00 P:27 SP:7A
8FB2  99 D7 07 STA STA $07D7,Y                  A:00 X:06 Y:00 P:27 SP:7A
8FB5  E8       INX                              A:00 X:06 Y:00 P:27 SP:7A

<L016>  occurrences: 50  block_size:4  repeated_instances:3
sample block:
810E  BD 80 07 LDA LDA $0780,X                  A:00 X:14 Y:06 P:24 SP:7C
8111  F0 03    BEQ BEQ #$03                     A:00 X:14 Y:06 P:26 SP:7C
8116  CA       DEX                              A:00 X:14 Y:06 P:26 SP:7C
8117  10 F5    BPL BPL #$F5                     A:00 X:13 Y:06 P:24 SP:7C

<L015>  occurrences: 51  block_size:4  repeated_instances:3
sample block:
8131  7E A7 07 ROR ROR $07A7,X                  A:00 X:00 Y:07 P:26 SP:7C
8134  E8       INX                              A:00 X:00 Y:07 P:24 SP:7C
8135  88       DEY                              A:00 X:01 Y:07 P:24 SP:7C
8136  D0 F9    BNE BNE #$F9                     A:00 X:01 Y:06 P:24 SP:7C

<L023>  occurrences: 34  block_size:2  repeated_instances:2
sample block:
815C  AD 3F 07 LDA LDA $073F                    A:00 X:07 Y:00 P:26 SP:7C
815F  8D 05 20 STA STA $2005                    A:00 X:07 Y:00 P:26 SP:7C

<L006>  occurrences: 114  block_size:2  repeated_instances:2
sample block:
8E06  68       PLA                              A:00 X:07 Y:00 P:26 SP:77
8E07  85 04    STA STA $04                      A:17 X:07 Y:00 P:24 SP:78

<L007>  occurrences: 114  block_size:3  repeated_instances:2
sample block:
8E0C  C8       INY                              A:82 X:07 Y:00 P:A4 SP:79
8E0D  B1 04    LDA LDA ($04),Y                  A:82 X:07 Y:01 P:24 SP:79
8E0F  85 06    STA STA $06                      A:31 X:07 Y:01 P:24 SP:79

<L006>  occurrences: 114  block_size:2  repeated_instances:2
sample block:
8E06  68       PLA                              A:02 X:07 Y:02 P:24 SP:77
8E07  85 04    STA STA $04                      A:36 X:07 Y:02 P:24 SP:78

<L007>  occurrences: 114  block_size:3  repeated_instances:2
sample block:
8E0C  C8       INY                              A:82 X:07 Y:02 P:A4 SP:79
8E0D  B1 04    LDA LDA ($04),Y                  A:82 X:07 Y:03 P:24 SP:79
8E0F  85 06    STA STA $06                      A:67 X:07 Y:03 P:24 SP:79

<L006>  occurrences: 114  block_size:2  repeated_instances:2
sample block:
8E06  68       PLA                              A:16 X:07 Y:16 P:24 SP:77
8E07  85 04    STA STA $04                      A:6C X:07 Y:16 P:24 SP:78

<L007>  occurrences: 114  block_size:3  repeated_instances:2
sample block:
8E0C  C8       INY                              A:85 X:07 Y:16 P:A4 SP:79
8E0D  B1 04    LDA LDA ($04),Y                  A:85 X:07 Y:17 P:24 SP:79
8E0F  85 06    STA STA $06                      A:43 X:07 Y:17 P:24 SP:79

<L005>  occurrences: 138  block_size:3  repeated_instances:2
sample block:
FFF0  19 19 1A ORA ORA $1A19,Y                  A:90 X:07 Y:18 P:26 SP:7F
FFF3  1A       *NOP                             A:90 X:07 Y:18 P:A4 SP:7F
FFF4  1C 1D 1D *NOP *NOP $1D1D,X                A:90 X:07 Y:18 P:A4 SP:7F

<L011>  occurrences: 64  block_size:2  repeated_instances:2
sample block:
8085  29 7F    AND AND #$7F                     A:10 X:07 Y:18 P:24 SP:04
8087  8D 78 07 STA STA $0778                    A:10 X:07 Y:18 P:24 SP:04

<L011>  occurrences: 64  block_size:2  repeated_instances:2
sample block:
8097  D0 05    BNE BNE #$05                     A:00 X:07 Y:02 P:24 SP:04
809E  8D 79 07 STA STA $0779                    A:00 X:07 Y:02 P:24 SP:04

<L002>  occurrences: 396  block_size:2  repeated_instances:2
sample block:
80AB  20 E6 8E JSR JSR $8EE6                    A:00 X:80 Y:02 P:26 SP:04
8EE6  8D 05 20 STA STA $2005                    A:00 X:80 Y:02 P:26 SP:02

<L001>  occurrences: 791  block_size:1  repeated_instances:2
sample block:
80BC  85 00    STA STA $00                      A:01 X:00 Y:02 P:24 SP:04

<L005>  occurrences: 138  block_size:3  repeated_instances:2
sample block:
8EDD  AE 02 20 LDX LDX $2002                    A:03 X:00 Y:02 P:24 SP:02
8EE0  A0 00    LDY LDY #$00                     A:03 X:00 Y:02 P:26 SP:02
8EE2  B1 00    LDA LDA ($00),Y                  A:03 X:00 Y:00 P:26 SP:02

<L001>  occurrences: 791  block_size:1  repeated_instances:2
sample block:
80CB  E0 06    CPX CPX #$06                     A:00 X:00 Y:00 P:26 SP:04

<L022>  occurrences: 34  block_size:1  repeated_instances:2
sample block:
80D5  9D 00 03 STA STA $0300,X                  A:00 X:00 Y:00 P:26 SP:04

<L001>  occurrences: 791  block_size:1  repeated_instances:2
sample block:
80DB  8D 73 07 STA STA $0773                    A:00 X:00 Y:00 P:26 SP:04

<L010>  occurrences: 80  block_size:6  repeated_instances:2
sample block:
8FA1  BD DD 07 LDA LDA $07DD,X                  A:00 X:05 Y:05 P:25 SP:00
8FA4  F9 D7 07 SBC SBC $07D7,Y                  A:00 X:05 Y:05 P:27 SP:00
8FA7  CA       DEX                              A:00 X:05 Y:05 P:27 SP:00
8FA8  88       DEY                              A:00 X:04 Y:05 P:25 SP:00
8FA9  10 F6    BPL BPL #$F6                     A:00 X:04 Y:04 P:25 SP:00
8FA1  BD DD 07 LDA LDA $07DD,X                  A:00 X:04 Y:04 P:25 SP:00

<L005>  occurrences: 138  block_size:3  repeated_instances:2
sample block:
8FAF  BD DD 07 LDA LDA $07DD,X                  A:00 X:00 Y:00 P:27 SP:00
8FB2  99 D7 07 STA STA $07D7,Y                  A:00 X:00 Y:00 P:27 SP:00
8FB5  E8       INX                              A:00 X:00 Y:00 P:27 SP:00

<L010>  occurrences: 80  block_size:6  repeated_instances:2
sample block:
8FA1  BD DD 07 LDA LDA $07DD,X                  A:00 X:0B Y:05 P:25 SP:02
8FA4  F9 D7 07 SBC SBC $07D7,Y                  A:00 X:0B Y:05 P:27 SP:02
8FA7  CA       DEX                              A:00 X:0B Y:05 P:27 SP:02
8FA8  88       DEY                              A:00 X:0A Y:05 P:25 SP:02
8FA9  10 F6    BPL BPL #$F6                     A:00 X:0A Y:04 P:25 SP:02
8FA1  BD DD 07 LDA LDA $07DD,X                  A:00 X:0A Y:04 P:25 SP:02

<L005>  occurrences: 138  block_size:3  repeated_instances:2
sample block:
8FAF  BD DD 07 LDA LDA $07DD,X                  A:00 X:06 Y:00 P:27 SP:02
8FB2  99 D7 07 STA STA $07D7,Y                  A:00 X:06 Y:00 P:27 SP:02
8FB5  E8       INX                              A:00 X:06 Y:00 P:27 SP:02

<L016>  occurrences: 50  block_size:4  repeated_instances:3
sample block:
810E  BD 80 07 LDA LDA $0780,X                  A:00 X:14 Y:06 P:24 SP:04
8111  F0 03    BEQ BEQ #$03                     A:00 X:14 Y:06 P:26 SP:04
8116  CA       DEX                              A:00 X:14 Y:06 P:26 SP:04
8117  10 F5    BPL BPL #$F5                     A:00 X:13 Y:06 P:24 SP:04

<L015>  occurrences: 51  block_size:4  repeated_instances:3
sample block:
8131  7E A7 07 ROR ROR $07A7,X                  A:02 X:00 Y:07 P:25 SP:04
8134  E8       INX                              A:02 X:00 Y:07 P:A4 SP:04
8135  88       DEY                              A:02 X:01 Y:07 P:24 SP:04
8136  D0 F9    BNE BNE #$F9                     A:02 X:01 Y:06 P:24 SP:04

<L023>  occurrences: 34  block_size:2  repeated_instances:2
sample block:
815C  AD 3F 07 LDA LDA $073F                    A:00 X:07 Y:00 P:26 SP:04
815F  8D 05 20 STA STA $2005                    A:00 X:07 Y:00 P:26 SP:04

<L006>  occurrences: 114  block_size:2  repeated_instances:2
sample block:
8E06  68       PLA                              A:00 X:07 Y:00 P:26 SP:FF
8E07  85 04    STA STA $04                      A:17 X:07 Y:00 P:24 SP:00

<L007>  occurrences: 114  block_size:3  repeated_instances:2
sample block:
8E0C  C8       INY                              A:82 X:07 Y:00 P:A4 SP:01
8E0D  B1 04    LDA LDA ($04),Y                  A:82 X:07 Y:01 P:24 SP:01
8E0F  85 06    STA STA $06                      A:31 X:07 Y:01 P:24 SP:01

<L006>  occurrences: 114  block_size:2  repeated_instances:2
sample block:
8E06  68       PLA                              A:02 X:07 Y:02 P:24 SP:FF
8E07  85 04    STA STA $04                      A:36 X:07 Y:02 P:24 SP:00

<L007>  occurrences: 114  block_size:3  repeated_instances:2
sample block:
8E0C  C8       INY                              A:82 X:07 Y:02 P:A4 SP:01
8E0D  B1 04    LDA LDA ($04),Y                  A:82 X:07 Y:03 P:24 SP:01
8E0F  85 06    STA STA $06                      A:67 X:07 Y:03 P:24 SP:01

<L006>  occurrences: 114  block_size:2  repeated_instances:2
sample block:
8E06  68       PLA                              A:18 X:07 Y:18 P:24 SP:FF
8E07  85 04    STA STA $04                      A:6C X:07 Y:18 P:24 SP:00

<L007>  occurrences: 114  block_size:3  repeated_instances:2
sample block:
8E0C  C8       INY                              A:85 X:07 Y:18 P:A4 SP:01
8E0D  B1 04    LDA LDA ($04),Y                  A:85 X:07 Y:19 P:24 SP:01
8E0F  85 06    STA STA $06                      A:FF X:07 Y:19 P:A4 SP:01

<L046>  occurrences: 9  block_size:2  repeated_instances:2
sample block:
8704  A9 1E    LDA LDA #$1E                     A:00 X:07 Y:1A P:26 SP:01
8706  8D 06 20 STA STA $2006                    A:1E X:07 Y:1A P:24 SP:01

<L052>  occurrences: 6  block_size:1  repeated_instances:2
sample block:
8716  AD 07 20 LDA LDA $2007                    A:03 X:07 Y:00 P:26 SP:01

<L020>  occurrences: 40  block_size:7  repeated_instances:40
sample block:
871C  91 00    STA STA ($00),Y                  A:20 X:07 Y:00 P:24 SP:01
871E  C8       INY                              A:20 X:07 Y:00 P:24 SP:01
871F  D0 02    BNE BNE #$02                     A:20 X:07 Y:01 P:24 SP:01
8723  A5 01    LDA LDA $01                      A:20 X:07 Y:01 P:24 SP:01
8725  C9 04    CMP CMP #$04                     A:03 X:07 Y:01 P:24 SP:01
8727  D0 F0    BNE BNE #$F0                     A:03 X:07 Y:01 P:A4 SP:01
8719  AD 07 20 LDA LDA $2007                    A:03 X:07 Y:01 P:A4 SP:01

<L004>  occurrences: 187  block_size:7  repeated_instances:12
sample block:
871F  D0 02    BNE BNE #$02                     A:D1 X:07 Y:29 P:24 SP:01
8723  A5 01    LDA LDA $01                      A:D1 X:07 Y:29 P:24 SP:01
8725  C9 04    CMP CMP #$04                     A:03 X:07 Y:29 P:24 SP:01
8727  D0 F0    BNE BNE #$F0                     A:03 X:07 Y:29 P:A4 SP:01
8719  AD 07 20 LDA LDA $2007                    A:03 X:07 Y:29 P:A4 SP:01
871C  91 00    STA STA ($00),Y                  A:D8 X:07 Y:29 P:A4 SP:01
871E  C8       INY                              A:D8 X:07 Y:29 P:A4 SP:01

<L004>  occurrences: 187  block_size:7  repeated_instances:30
sample block:
871F  D0 02    BNE BNE #$02                     A:D3 X:07 Y:36 P:24 SP:01
8723  A5 01    LDA LDA $01                      A:D3 X:07 Y:36 P:24 SP:01
8725  C9 04    CMP CMP #$04                     A:03 X:07 Y:36 P:24 SP:01
8727  D0 F0    BNE BNE #$F0                     A:03 X:07 Y:36 P:A4 SP:01
8719  AD 07 20 LDA LDA $2007                    A:03 X:07 Y:36 P:A4 SP:01
871C  91 00    STA STA ($00),Y                  A:DB X:07 Y:36 P:A4 SP:01
871E  C8       INY                              A:DB X:07 Y:36 P:A4 SP:01

<L004>  occurrences: 187  block_size:7  repeated_instances:28
sample block:
871F  D0 02    BNE BNE #$02                     A:DD X:07 Y:56 P:24 SP:01
8723  A5 01    LDA LDA $01                      A:DD X:07 Y:56 P:24 SP:01
8725  C9 04    CMP CMP #$04                     A:03 X:07 Y:56 P:24 SP:01
8727  D0 F0    BNE BNE #$F0                     A:03 X:07 Y:56 P:A4 SP:01
8719  AD 07 20 LDA LDA $2007                    A:03 X:07 Y:56 P:A4 SP:01
871C  91 00    STA STA ($00),Y                  A:E1 X:07 Y:56 P:A4 SP:01
871E  C8       INY                              A:E1 X:07 Y:56 P:A4 SP:01

<L004>  occurrences: 187  block_size:7  repeated_instances:5
sample block:
871F  D0 02    BNE BNE #$02                     A:DB X:07 Y:73 P:24 SP:01
8723  A5 01    LDA LDA $01                      A:DB X:07 Y:73 P:24 SP:01
8725  C9 04    CMP CMP #$04                     A:03 X:07 Y:73 P:24 SP:01
8727  D0 F0    BNE BNE #$F0                     A:03 X:07 Y:73 P:A4 SP:01
8719  AD 07 20 LDA LDA $2007                    A:03 X:07 Y:73 P:A4 SP:01
871C  91 00    STA STA ($00),Y                  A:42 X:07 Y:73 P:24 SP:01
871E  C8       INY                              A:42 X:07 Y:73 P:24 SP:01

<L004>  occurrences: 187  block_size:7  repeated_instances:20
sample block:
871F  D0 02    BNE BNE #$02                     A:42 X:07 Y:79 P:24 SP:01
8723  A5 01    LDA LDA $01                      A:42 X:07 Y:79 P:24 SP:01
8725  C9 04    CMP CMP #$04                     A:03 X:07 Y:79 P:24 SP:01
8727  D0 F0    BNE BNE #$F0                     A:03 X:07 Y:79 P:A4 SP:01
8719  AD 07 20 LDA LDA $2007                    A:03 X:07 Y:79 P:A4 SP:01
871C  91 00    STA STA ($00),Y                  A:DB X:07 Y:79 P:A4 SP:01
871E  C8       INY                              A:DB X:07 Y:79 P:A4 SP:01

<L004>  occurrences: 187  block_size:7  repeated_instances:6
sample block:
871F  D0 02    BNE BNE #$02                     A:DF X:07 Y:8E P:A4 SP:01
8723  A5 01    LDA LDA $01                      A:DF X:07 Y:8E P:A4 SP:01
8725  C9 04    CMP CMP #$04                     A:03 X:07 Y:8E P:24 SP:01
8727  D0 F0    BNE BNE #$F0                     A:03 X:07 Y:8E P:A4 SP:01
8719  AD 07 20 LDA LDA $2007                    A:03 X:07 Y:8E P:A4 SP:01
871C  91 00    STA STA ($00),Y                  A:DB X:07 Y:8E P:A4 SP:01
871E  C8       INY                              A:DB X:07 Y:8E P:A4 SP:01

<L004>  occurrences: 187  block_size:7  repeated_instances:7
sample block:
871F  D0 02    BNE BNE #$02                     A:DF X:07 Y:96 P:A4 SP:01
8723  A5 01    LDA LDA $01                      A:DF X:07 Y:96 P:A4 SP:01
8725  C9 04    CMP CMP #$04                     A:03 X:07 Y:96 P:24 SP:01
8727  D0 F0    BNE BNE #$F0                     A:03 X:07 Y:96 P:A4 SP:01
8719  AD 07 20 LDA LDA $2007                    A:03 X:07 Y:96 P:A4 SP:01
871C  91 00    STA STA ($00),Y                  A:DB X:07 Y:96 P:A4 SP:01
871E  C8       INY                              A:DB X:07 Y:96 P:A4 SP:01

<L004>  occurrences: 187  block_size:7  repeated_instances:5
sample block:
871F  D0 02    BNE BNE #$02                     A:14 X:07 Y:9E P:A4 SP:01
8723  A5 01    LDA LDA $01                      A:14 X:07 Y:9E P:A4 SP:01
8725  C9 04    CMP CMP #$04                     A:03 X:07 Y:9E P:24 SP:01
8727  D0 F0    BNE BNE #$F0                     A:03 X:07 Y:9E P:A4 SP:01
8719  AD 07 20 LDA LDA $2007                    A:03 X:07 Y:9E P:A4 SP:01
871C  91 00    STA STA ($00),Y                  A:DB X:07 Y:9E P:A4 SP:01
871E  C8       INY                              A:DB X:07 Y:9E P:A4 SP:01

<L004>  occurrences: 187  block_size:7  repeated_instances:6
sample block:
871F  D0 02    BNE BNE #$02                     A:E0 X:07 Y:A5 P:A4 SP:01
8723  A5 01    LDA LDA $01                      A:E0 X:07 Y:A5 P:A4 SP:01
8725  C9 04    CMP CMP #$04                     A:03 X:07 Y:A5 P:24 SP:01
8727  D0 F0    BNE BNE #$F0                     A:03 X:07 Y:A5 P:A4 SP:01
8719  AD 07 20 LDA LDA $2007                    A:03 X:07 Y:A5 P:A4 SP:01
871C  91 00    STA STA ($00),Y                  A:DB X:07 Y:A5 P:A4 SP:01
871E  C8       INY                              A:DB X:07 Y:A5 P:A4 SP:01

<L004>  occurrences: 187  block_size:7  repeated_instances:7
sample block:
871F  D0 02    BNE BNE #$02                     A:E0 X:07 Y:AD P:A4 SP:01
8723  A5 01    LDA LDA $01                      A:E0 X:07 Y:AD P:A4 SP:01
8725  C9 04    CMP CMP #$04                     A:03 X:07 Y:AD P:24 SP:01
8727  D0 F0    BNE BNE #$F0                     A:03 X:07 Y:AD P:A4 SP:01
8719  AD 07 20 LDA LDA $2007                    A:03 X:07 Y:AD P:A4 SP:01
871C  91 00    STA STA ($00),Y                  A:DB X:07 Y:AD P:A4 SP:01
871E  C8       INY                              A:DB X:07 Y:AD P:A4 SP:01

<L004>  occurrences: 187  block_size:7  repeated_instances:2
sample block:
871F  D0 02    BNE BNE #$02                     A:14 X:07 Y:B5 P:A4 SP:01
8723  A5 01    LDA LDA $01                      A:14 X:07 Y:B5 P:A4 SP:01
8725  C9 04    CMP CMP #$04                     A:03 X:07 Y:B5 P:24 SP:01
8727  D0 F0    BNE BNE #$F0                     A:03 X:07 Y:B5 P:A4 SP:01
8719  AD 07 20 LDA LDA $2007                    A:03 X:07 Y:B5 P:A4 SP:01
871C  91 00    STA STA ($00),Y                  A:DB X:07 Y:B5 P:A4 SP:01
871E  C8       INY                              A:DB X:07 Y:B5 P:A4 SP:01

<L004>  occurrences: 187  block_size:7  repeated_instances:6
sample block:
871F  D0 02    BNE BNE #$02                     A:42 X:07 Y:BA P:A4 SP:01
8723  A5 01    LDA LDA $01                      A:42 X:07 Y:BA P:A4 SP:01
8725  C9 04    CMP CMP #$04                     A:03 X:07 Y:BA P:24 SP:01
8727  D0 F0    BNE BNE #$F0                     A:03 X:07 Y:BA P:A4 SP:01
8719  AD 07 20 LDA LDA $2007                    A:03 X:07 Y:BA P:A4 SP:01
871C  91 00    STA STA ($00),Y                  A:DB X:07 Y:BA P:A4 SP:01
871E  C8       INY                              A:DB X:07 Y:BA P:A4 SP:01

<L004>  occurrences: 187  block_size:7  repeated_instances:10
sample block:
871F  D0 02    BNE BNE #$02                     A:D9 X:07 Y:C2 P:A4 SP:01
8723  A5 01    LDA LDA $01                      A:D9 X:07 Y:C2 P:A4 SP:01
8725  C9 04    CMP CMP #$04                     A:03 X:07 Y:C2 P:24 SP:01
8727  D0 F0    BNE BNE #$F0                     A:03 X:07 Y:C2 P:A4 SP:01
8719  AD 07 20 LDA LDA $2007                    A:03 X:07 Y:C2 P:A4 SP:01
871C  91 00    STA STA ($00),Y                  A:DB X:07 Y:C2 P:A4 SP:01
871E  C8       INY                              A:DB X:07 Y:C2 P:A4 SP:01

<L004>  occurrences: 187  block_size:7  repeated_instances:6
sample block:
871F  D0 02    BNE BNE #$02                     A:5F X:07 Y:CD P:A4 SP:01
8723  A5 01    LDA LDA $01                      A:5F X:07 Y:CD P:A4 SP:01
8725  C9 04    CMP CMP #$04                     A:03 X:07 Y:CD P:24 SP:01
8727  D0 F0    BNE BNE #$F0                     A:03 X:07 Y:CD P:A4 SP:01
8719  AD 07 20 LDA LDA $2007                    A:03 X:07 Y:CD P:A4 SP:01
871C  91 00    STA STA ($00),Y                  A:95 X:07 Y:CD P:A4 SP:01
871E  C8       INY                              A:95 X:07 Y:CD P:A4 SP:01

<L004>  occurrences: 187  block_size:7  repeated_instances:37
sample block:
871F  D0 02    BNE BNE #$02                     A:96 X:07 Y:DA P:A4 SP:01
8723  A5 01    LDA LDA $01                      A:96 X:07 Y:DA P:A4 SP:01
8725  C9 04    CMP CMP #$04                     A:03 X:07 Y:DA P:24 SP:01
8727  D0 F0    BNE BNE #$F0                     A:03 X:07 Y:DA P:A4 SP:01
8719  AD 07 20 LDA LDA $2007                    A:03 X:07 Y:DA P:A4 SP:01
871C  91 00    STA STA ($00),Y                  A:95 X:07 Y:DA P:A4 SP:01
871E  C8       INY                              A:95 X:07 Y:DA P:A4 SP:01

<L021>  occurrences: 37  block_size:9  repeated_instances:37
sample block:
8723  A5 01    LDA LDA $01                      A:10 X:07 Y:00 P:24 SP:01
8725  C9 04    CMP CMP #$04                     A:04 X:07 Y:00 P:24 SP:01
8727  D0 F0    BNE BNE #$F0                     A:04 X:07 Y:00 P:27 SP:01
8729  C0 3A    CPY CPY #$3A                     A:04 X:07 Y:00 P:27 SP:01
872B  90 EC    BCC BCC #$EC                     A:04 X:07 Y:00 P:A4 SP:01
8719  AD 07 20 LDA LDA $2007                    A:04 X:07 Y:00 P:A4 SP:01
871C  91 00    STA STA ($00),Y                  A:0A X:07 Y:00 P:24 SP:01
871E  C8       INY                              A:0A X:07 Y:00 P:24 SP:01
871F  D0 02    BNE BNE #$02                     A:0A X:07 Y:01 P:24 SP:01

<L050>  occurrences: 7  block_size:9  repeated_instances:5
sample block:
871F  D0 02    BNE BNE #$02                     A:99 X:07 Y:26 P:24 SP:01
8723  A5 01    LDA LDA $01                      A:99 X:07 Y:26 P:24 SP:01
8725  C9 04    CMP CMP #$04                     A:04 X:07 Y:26 P:24 SP:01
8727  D0 F0    BNE BNE #$F0                     A:04 X:07 Y:26 P:27 SP:01
8729  C0 3A    CPY CPY #$3A                     A:04 X:07 Y:26 P:27 SP:01
872B  90 EC    BCC BCC #$EC                     A:04 X:07 Y:26 P:A4 SP:01
8719  AD 07 20 LDA LDA $2007                    A:04 X:07 Y:26 P:A4 SP:01
871C  91 00    STA STA ($00),Y                  A:AA X:07 Y:26 P:A4 SP:01
871E  C8       INY                              A:AA X:07 Y:26 P:A4 SP:01

<L050>  occurrences: 7  block_size:9  repeated_instances:2
sample block:
871F  D0 02    BNE BNE #$02                     A:99 X:07 Y:2D P:24 SP:01
8723  A5 01    LDA LDA $01                      A:99 X:07 Y:2D P:24 SP:01
8725  C9 04    CMP CMP #$04                     A:04 X:07 Y:2D P:24 SP:01
8727  D0 F0    BNE BNE #$F0                     A:04 X:07 Y:2D P:27 SP:01
8729  C0 3A    CPY CPY #$3A                     A:04 X:07 Y:2D P:27 SP:01
872B  90 EC    BCC BCC #$EC                     A:04 X:07 Y:2D P:A4 SP:01
8719  AD 07 20 LDA LDA $2007                    A:04 X:07 Y:2D P:A4 SP:01
871C  91 00    STA STA ($00),Y                  A:AA X:07 Y:2D P:A4 SP:01
871E  C8       INY                              A:AA X:07 Y:2D P:A4 SP:01

<L018>  occurrences: 46  block_size:4  repeated_instances:2
sample block:
FFF3  1A       *NOP                             A:90 X:07 Y:3A P:A4 SP:07
FFF4  1C 1D 1D *NOP *NOP $1D1D,X                A:90 X:07 Y:3A P:A4 SP:07
FFF7  1E 1E 1F ASL ASL $1F1E,X                  A:90 X:07 Y:3A P:A4 SP:07
FFFA  82 80    *NOP *NOP #$80                   A:90 X:07 Y:3A P:26 SP:07

<L011>  occurrences: 64  block_size:2  repeated_instances:2
sample block:
8085  29 7F    AND AND #$7F                     A:10 X:07 Y:3A P:24 SP:D7
8087  8D 78 07 STA STA $0778                    A:10 X:07 Y:3A P:24 SP:D7

<L011>  occurrences: 64  block_size:2  repeated_instances:2
sample block:
8097  D0 05    BNE BNE #$05                     A:00 X:07 Y:02 P:24 SP:D7
809E  8D 79 07 STA STA $0779                    A:00 X:07 Y:02 P:24 SP:D7

<L002>  occurrences: 396  block_size:2  repeated_instances:2
sample block:
80AB  20 E6 8E JSR JSR $8EE6                    A:00 X:80 Y:02 P:26 SP:D7
8EE6  8D 05 20 STA STA $2005                    A:00 X:80 Y:02 P:26 SP:D5

<L001>  occurrences: 791  block_size:1  repeated_instances:2
sample block:
80BC  85 00    STA STA $00                      A:00 X:05 Y:02 P:26 SP:D7

<L002>  occurrences: 396  block_size:2  repeated_instances:2
sample block:
8EDD  AE 02 20 LDX LDX $2002                    A:03 X:05 Y:02 P:24 SP:D5
8EE0  A0 00    LDY LDY #$00                     A:03 X:00 Y:02 P:26 SP:D5

<L008>  occurrences: 106  block_size:3  repeated_instances:2
sample block:
8E92  8D 06 20 STA STA $2006                    A:20 X:00 Y:00 P:24 SP:D5
8E95  C8       INY                              A:20 X:00 Y:00 P:24 SP:D5
8E96  B1 00    LDA LDA ($00),Y                  A:20 X:00 Y:01 P:24 SP:D5

<L031>  occurrences: 22  block_size:8  repeated_instances:2
sample block:
8EA0  AD 78 07 LDA LDA $0778                    A:A8 X:00 Y:02 P:A4 SP:D4
8EA3  09 04    ORA ORA #$04                     A:10 X:00 Y:02 P:24 SP:D4
8EA5  B0 02    BCS BCS #$02                     A:14 X:00 Y:02 P:24 SP:D4
8EA7  29 FB    AND AND #$FB                     A:14 X:00 Y:02 P:24 SP:D4
8EA9  20 ED 8E JSR JSR $8EED                    A:10 X:00 Y:02 P:24 SP:D4
8EED  8D 00 20 STA STA $2000                    A:10 X:00 Y:02 P:24 SP:D2
8EF0  8D 78 07 STA STA $0778                    A:10 X:00 Y:02 P:24 SP:D2
8EF3  60       RTS                              A:10 X:00 Y:02 P:24 SP:D2

<L003>  occurrences: 238  block_size:12  repeated_instances:2
sample block:
8EB6  B0 01    BCS BCS #$01                     A:14 X:14 Y:03 P:25 SP:D5
8EB9  B1 00    LDA LDA ($00),Y                  A:14 X:14 Y:03 P:25 SP:D5
8EBB  8D 07 20 STA STA $2007                    A:26 X:14 Y:03 P:25 SP:D5
8EBE  CA       DEX                              A:26 X:14 Y:03 P:25 SP:D5
8EBF  D0 F5    BNE BNE #$F5                     A:26 X:13 Y:03 P:25 SP:D5
8EB6  B0 01    BCS BCS #$01                     A:26 X:13 Y:03 P:25 SP:D5
8EB9  B1 00    LDA LDA ($00),Y                  A:26 X:13 Y:03 P:25 SP:D5
8EBB  8D 07 20 STA STA $2007                    A:26 X:13 Y:03 P:25 SP:D5
8EBE  CA       DEX                              A:26 X:13 Y:03 P:25 SP:D5
8EBF  D0 F5    BNE BNE #$F5                     A:26 X:12 Y:03 P:25 SP:D5
8EC1  38       SEC                              A:26 X:00 Y:03 P:27 SP:D5
8EC2  98       TYA                              A:26 X:00 Y:03 P:27 SP:D5

<L001>  occurrences: 791  block_size:1  repeated_instances:3
sample block:
8EE0  A0 00    LDY LDY #$00                     A:00 X:00 Y:03 P:26 SP:D5

<L008>  occurrences: 106  block_size:3  repeated_instances:2
sample block:
8E92  8D 06 20 STA STA $2006                    A:20 X:00 Y:00 P:24 SP:D5
8E95  C8       INY                              A:20 X:00 Y:00 P:24 SP:D5
8E96  B1 00    LDA LDA ($00),Y                  A:20 X:00 Y:01 P:24 SP:D5

<L031>  occurrences: 22  block_size:8  repeated_instances:2
sample block:
8EA0  AD 78 07 LDA LDA $0778                    A:A8 X:00 Y:02 P:A4 SP:D4
8EA3  09 04    ORA ORA #$04                     A:10 X:00 Y:02 P:24 SP:D4
8EA5  B0 02    BCS BCS #$02                     A:14 X:00 Y:02 P:24 SP:D4
8EA7  29 FB    AND AND #$FB                     A:14 X:00 Y:02 P:24 SP:D4
8EA9  20 ED 8E JSR JSR $8EED                    A:10 X:00 Y:02 P:24 SP:D4
8EED  8D 00 20 STA STA $2000                    A:10 X:00 Y:02 P:24 SP:D2
8EF0  8D 78 07 STA STA $0778                    A:10 X:00 Y:02 P:24 SP:D2
8EF3  60       RTS                              A:10 X:00 Y:02 P:24 SP:D2

<L003>  occurrences: 238  block_size:12  repeated_instances:2
sample block:
8EB6  B0 01    BCS BCS #$01                     A:14 X:14 Y:03 P:25 SP:D5
8EB9  B1 00    LDA LDA ($00),Y                  A:14 X:14 Y:03 P:25 SP:D5
8EBB  8D 07 20 STA STA $2007                    A:26 X:14 Y:03 P:25 SP:D5
8EBE  CA       DEX                              A:26 X:14 Y:03 P:25 SP:D5
8EBF  D0 F5    BNE BNE #$F5                     A:26 X:13 Y:03 P:25 SP:D5
8EB6  B0 01    BCS BCS #$01                     A:26 X:13 Y:03 P:25 SP:D5
8EB9  B1 00    LDA LDA ($00),Y                  A:26 X:13 Y:03 P:25 SP:D5
8EBB  8D 07 20 STA STA $2007                    A:26 X:13 Y:03 P:25 SP:D5
8EBE  CA       DEX                              A:26 X:13 Y:03 P:25 SP:D5
8EBF  D0 F5    BNE BNE #$F5                     A:26 X:12 Y:03 P:25 SP:D5
8EC1  38       SEC                              A:26 X:00 Y:03 P:27 SP:D5
8EC2  98       TYA                              A:26 X:00 Y:03 P:27 SP:D5

<L001>  occurrences: 791  block_size:1  repeated_instances:3
sample block:
8EE0  A0 00    LDY LDY #$00                     A:00 X:00 Y:03 P:26 SP:D5

<L008>  occurrences: 106  block_size:3  repeated_instances:2
sample block:
8E92  8D 06 20 STA STA $2006                    A:20 X:00 Y:00 P:24 SP:D5
8E95  C8       INY                              A:20 X:00 Y:00 P:24 SP:D5
8E96  B1 00    LDA LDA ($00),Y                  A:20 X:00 Y:01 P:24 SP:D5

<L031>  occurrences: 22  block_size:8  repeated_instances:2
sample block:
8EA0  AD 78 07 LDA LDA $0778                    A:A8 X:00 Y:02 P:A4 SP:D4
8EA3  09 04    ORA ORA #$04                     A:10 X:00 Y:02 P:24 SP:D4
8EA5  B0 02    BCS BCS #$02                     A:14 X:00 Y:02 P:24 SP:D4
8EA7  29 FB    AND AND #$FB                     A:14 X:00 Y:02 P:24 SP:D4
8EA9  20 ED 8E JSR JSR $8EED                    A:10 X:00 Y:02 P:24 SP:D4
8EED  8D 00 20 STA STA $2000                    A:10 X:00 Y:02 P:24 SP:D2
8EF0  8D 78 07 STA STA $0778                    A:10 X:00 Y:02 P:24 SP:D2
8EF3  60       RTS                              A:10 X:00 Y:02 P:24 SP:D2

<L003>  occurrences: 238  block_size:12  repeated_instances:2
sample block:
8EB6  B0 01    BCS BCS #$01                     A:14 X:14 Y:03 P:25 SP:D5
8EB9  B1 00    LDA LDA ($00),Y                  A:14 X:14 Y:03 P:25 SP:D5
8EBB  8D 07 20 STA STA $2007                    A:26 X:14 Y:03 P:25 SP:D5
8EBE  CA       DEX                              A:26 X:14 Y:03 P:25 SP:D5
8EBF  D0 F5    BNE BNE #$F5                     A:26 X:13 Y:03 P:25 SP:D5
8EB6  B0 01    BCS BCS #$01                     A:26 X:13 Y:03 P:25 SP:D5
8EB9  B1 00    LDA LDA ($00),Y                  A:26 X:13 Y:03 P:25 SP:D5
8EBB  8D 07 20 STA STA $2007                    A:26 X:13 Y:03 P:25 SP:D5
8EBE  CA       DEX                              A:26 X:13 Y:03 P:25 SP:D5
8EBF  D0 F5    BNE BNE #$F5                     A:26 X:12 Y:03 P:25 SP:D5
8EC1  38       SEC                              A:26 X:00 Y:03 P:27 SP:D5
8EC2  98       TYA                              A:26 X:00 Y:03 P:27 SP:D5

<L001>  occurrences: 791  block_size:1  repeated_instances:3
sample block:
8EE0  A0 00    LDY LDY #$00                     A:00 X:00 Y:03 P:26 SP:D5

<L008>  occurrences: 106  block_size:3  repeated_instances:2
sample block:
8E92  8D 06 20 STA STA $2006                    A:21 X:00 Y:00 P:24 SP:D5
8E95  C8       INY                              A:21 X:00 Y:00 P:24 SP:D5
8E96  B1 00    LDA LDA ($00),Y                  A:21 X:00 Y:01 P:24 SP:D5

<L031>  occurrences: 22  block_size:8  repeated_instances:2
sample block:
8EA0  AD 78 07 LDA LDA $0778                    A:A8 X:00 Y:02 P:A4 SP:D4
8EA3  09 04    ORA ORA #$04                     A:10 X:00 Y:02 P:24 SP:D4
8EA5  B0 02    BCS BCS #$02                     A:14 X:00 Y:02 P:24 SP:D4
8EA7  29 FB    AND AND #$FB                     A:14 X:00 Y:02 P:24 SP:D4
8EA9  20 ED 8E JSR JSR $8EED                    A:10 X:00 Y:02 P:24 SP:D4
8EED  8D 00 20 STA STA $2000                    A:10 X:00 Y:02 P:24 SP:D2
8EF0  8D 78 07 STA STA $0778                    A:10 X:00 Y:02 P:24 SP:D2
8EF3  60       RTS                              A:10 X:00 Y:02 P:24 SP:D2

<L003>  occurrences: 238  block_size:12  repeated_instances:2
sample block:
8EB6  B0 01    BCS BCS #$01                     A:14 X:14 Y:03 P:25 SP:D5
8EB9  B1 00    LDA LDA ($00),Y                  A:14 X:14 Y:03 P:25 SP:D5
8EBB  8D 07 20 STA STA $2007                    A:26 X:14 Y:03 P:25 SP:D5
8EBE  CA       DEX                              A:26 X:14 Y:03 P:25 SP:D5
8EBF  D0 F5    BNE BNE #$F5                     A:26 X:13 Y:03 P:25 SP:D5
8EB6  B0 01    BCS BCS #$01                     A:26 X:13 Y:03 P:25 SP:D5
8EB9  B1 00    LDA LDA ($00),Y                  A:26 X:13 Y:03 P:25 SP:D5
8EBB  8D 07 20 STA STA $2007                    A:26 X:13 Y:03 P:25 SP:D5
8EBE  CA       DEX                              A:26 X:13 Y:03 P:25 SP:D5
8EBF  D0 F5    BNE BNE #$F5                     A:26 X:12 Y:03 P:25 SP:D5
8EC1  38       SEC                              A:26 X:00 Y:03 P:27 SP:D5
8EC2  98       TYA                              A:26 X:00 Y:03 P:27 SP:D5

<L001>  occurrences: 791  block_size:1  repeated_instances:3
sample block:
8EE0  A0 00    LDY LDY #$00                     A:00 X:00 Y:03 P:26 SP:D5

<L008>  occurrences: 106  block_size:3  repeated_instances:2
sample block:
8E92  8D 06 20 STA STA $2006                    A:20 X:00 Y:00 P:24 SP:D5
8E95  C8       INY                              A:20 X:00 Y:00 P:24 SP:D5
8E96  B1 00    LDA LDA ($00),Y                  A:20 X:00 Y:01 P:24 SP:D5

<L003>  occurrences: 238  block_size:12  repeated_instances:3
sample block:
8EA0  AD 78 07 LDA LDA $0778                    A:02 X:00 Y:02 P:24 SP:D4
8EA3  09 04    ORA ORA #$04                     A:10 X:00 Y:02 P:24 SP:D4
8EA5  B0 02    BCS BCS #$02                     A:14 X:00 Y:02 P:24 SP:D4
8EA7  29 FB    AND AND #$FB                     A:14 X:00 Y:02 P:24 SP:D4
8EA9  20 ED 8E JSR JSR $8EED                    A:10 X:00 Y:02 P:24 SP:D4
8EED  8D 00 20 STA STA $2000                    A:10 X:00 Y:02 P:24 SP:D2
8EF0  8D 78 07 STA STA $0778                    A:10 X:00 Y:02 P:24 SP:D2
8EF3  60       RTS                              A:10 X:00 Y:02 P:24 SP:D2
8EAC  68       PLA                              A:10 X:00 Y:02 P:24 SP:D4
8EAD  0A       ASL A                            A:02 X:00 Y:02 P:24 SP:D5
8EAE  90 03    BCC BCC #$03                     A:04 X:00 Y:02 P:24 SP:D5
8EB3  4A       LSR A                            A:04 X:00 Y:02 P:24 SP:D5

<L008>  occurrences: 106  block_size:3  repeated_instances:2
sample block:
8E92  8D 06 20 STA STA $2006                    A:20 X:00 Y:00 P:24 SP:D5
8E95  C8       INY                              A:20 X:00 Y:00 P:24 SP:D5
8E96  B1 00    LDA LDA ($00),Y                  A:20 X:00 Y:01 P:24 SP:D5

<L031>  occurrences: 22  block_size:8  repeated_instances:2
sample block:
8EA0  AD 78 07 LDA LDA $0778                    A:A8 X:00 Y:02 P:A4 SP:D4
8EA3  09 04    ORA ORA #$04                     A:10 X:00 Y:02 P:24 SP:D4
8EA5  B0 02    BCS BCS #$02                     A:14 X:00 Y:02 P:24 SP:D4
8EA7  29 FB    AND AND #$FB                     A:14 X:00 Y:02 P:24 SP:D4
8EA9  20 ED 8E JSR JSR $8EED                    A:10 X:00 Y:02 P:24 SP:D4
8EED  8D 00 20 STA STA $2000                    A:10 X:00 Y:02 P:24 SP:D2
8EF0  8D 78 07 STA STA $0778                    A:10 X:00 Y:02 P:24 SP:D2
8EF3  60       RTS                              A:10 X:00 Y:02 P:24 SP:D2

<L003>  occurrences: 238  block_size:12  repeated_instances:2
sample block:
8EB6  B0 01    BCS BCS #$01                     A:14 X:14 Y:03 P:25 SP:D5
8EB9  B1 00    LDA LDA ($00),Y                  A:14 X:14 Y:03 P:25 SP:D5
8EBB  8D 07 20 STA STA $2007                    A:48 X:14 Y:03 P:25 SP:D5
8EBE  CA       DEX                              A:48 X:14 Y:03 P:25 SP:D5
8EBF  D0 F5    BNE BNE #$F5                     A:48 X:13 Y:03 P:25 SP:D5
8EB6  B0 01    BCS BCS #$01                     A:48 X:13 Y:03 P:25 SP:D5
8EB9  B1 00    LDA LDA ($00),Y                  A:48 X:13 Y:03 P:25 SP:D5
8EBB  8D 07 20 STA STA $2007                    A:48 X:13 Y:03 P:25 SP:D5
8EBE  CA       DEX                              A:48 X:13 Y:03 P:25 SP:D5
8EBF  D0 F5    BNE BNE #$F5                     A:48 X:12 Y:03 P:25 SP:D5
8EC1  38       SEC                              A:48 X:00 Y:03 P:27 SP:D5
8EC2  98       TYA                              A:48 X:00 Y:03 P:27 SP:D5

<L001>  occurrences: 791  block_size:1  repeated_instances:3
sample block:
8EE0  A0 00    LDY LDY #$00                     A:00 X:00 Y:03 P:26 SP:D5

<L008>  occurrences: 106  block_size:3  repeated_instances:2
sample block:
8E92  8D 06 20 STA STA $2006                    A:20 X:00 Y:00 P:24 SP:D5
8E95  C8       INY                              A:20 X:00 Y:00 P:24 SP:D5
8E96  B1 00    LDA LDA ($00),Y                  A:20 X:00 Y:01 P:24 SP:D5

<L003>  occurrences: 238  block_size:12  repeated_instances:3
sample block:
8EA0  AD 78 07 LDA LDA $0778                    A:02 X:00 Y:02 P:24 SP:D4
8EA3  09 04    ORA ORA #$04                     A:10 X:00 Y:02 P:24 SP:D4
8EA5  B0 02    BCS BCS #$02                     A:14 X:00 Y:02 P:24 SP:D4
8EA7  29 FB    AND AND #$FB                     A:14 X:00 Y:02 P:24 SP:D4
8EA9  20 ED 8E JSR JSR $8EED                    A:10 X:00 Y:02 P:24 SP:D4
8EED  8D 00 20 STA STA $2000                    A:10 X:00 Y:02 P:24 SP:D2
8EF0  8D 78 07 STA STA $0778                    A:10 X:00 Y:02 P:24 SP:D2
8EF3  60       RTS                              A:10 X:00 Y:02 P:24 SP:D2
8EAC  68       PLA                              A:10 X:00 Y:02 P:24 SP:D4
8EAD  0A       ASL A                            A:02 X:00 Y:02 P:24 SP:D5
8EAE  90 03    BCC BCC #$03                     A:04 X:00 Y:02 P:24 SP:D5
8EB3  4A       LSR A                            A:04 X:00 Y:02 P:24 SP:D5

<L008>  occurrences: 106  block_size:3  repeated_instances:2
sample block:
8E92  8D 06 20 STA STA $2006                    A:20 X:00 Y:00 P:24 SP:D5
8E95  C8       INY                              A:20 X:00 Y:00 P:24 SP:D5
8E96  B1 00    LDA LDA ($00),Y                  A:20 X:00 Y:01 P:24 SP:D5

<L044>  occurrences: 12  block_size:7  repeated_instances:2
sample block:
8EA0  AD 78 07 LDA LDA $0778                    A:92 X:00 Y:02 P:A5 SP:D4
8EA3  09 04    ORA ORA #$04                     A:10 X:00 Y:02 P:25 SP:D4
8EA5  B0 02    BCS BCS #$02                     A:14 X:00 Y:02 P:25 SP:D4
8EA9  20 ED 8E JSR JSR $8EED                    A:14 X:00 Y:02 P:25 SP:D4
8EED  8D 00 20 STA STA $2000                    A:14 X:00 Y:02 P:25 SP:D2
8EF0  8D 78 07 STA STA $0778                    A:14 X:00 Y:02 P:25 SP:D2
8EF3  60       RTS                              A:14 X:00 Y:02 P:25 SP:D2

<L003>  occurrences: 238  block_size:12  repeated_instances:2
sample block:
8EB6  B0 01    BCS BCS #$01                     A:09 X:09 Y:03 P:25 SP:D5
8EB9  B1 00    LDA LDA ($00),Y                  A:09 X:09 Y:03 P:25 SP:D5
8EBB  8D 07 20 STA STA $2007                    A:46 X:09 Y:03 P:25 SP:D5
8EBE  CA       DEX                              A:46 X:09 Y:03 P:25 SP:D5
8EBF  D0 F5    BNE BNE #$F5                     A:46 X:08 Y:03 P:25 SP:D5
8EB6  B0 01    BCS BCS #$01                     A:46 X:08 Y:03 P:25 SP:D5
8EB9  B1 00    LDA LDA ($00),Y                  A:46 X:08 Y:03 P:25 SP:D5
8EBB  8D 07 20 STA STA $2007                    A:46 X:08 Y:03 P:25 SP:D5
8EBE  CA       DEX                              A:46 X:08 Y:03 P:25 SP:D5
8EBF  D0 F5    BNE BNE #$F5                     A:46 X:07 Y:03 P:25 SP:D5
8EB6  B0 01    BCS BCS #$01                     A:46 X:01 Y:03 P:25 SP:D5
8EB9  B1 00    LDA LDA ($00),Y                  A:46 X:01 Y:03 P:25 SP:D5

<L018>  occurrences: 46  block_size:4  repeated_instances:2
sample block:
8ED2  A9 00    LDA LDA #$00                     A:3F X:00 Y:03 P:24 SP:D5
8ED4  8D 06 20 STA STA $2006                    A:00 X:00 Y:03 P:26 SP:D5
8ED7  8D 06 20 STA STA $2006                    A:00 X:00 Y:03 P:26 SP:D5
8EDA  8D 06 20 STA STA $2006                    A:00 X:00 Y:03 P:26 SP:D5

<L008>  occurrences: 106  block_size:3  repeated_instances:2
sample block:
8E92  8D 06 20 STA STA $2006                    A:20 X:00 Y:00 P:24 SP:D5
8E95  C8       INY                              A:20 X:00 Y:00 P:24 SP:D5
8E96  B1 00    LDA LDA ($00),Y                  A:20 X:00 Y:01 P:24 SP:D5

<L044>  occurrences: 12  block_size:7  repeated_instances:2
sample block:
8EA0  AD 78 07 LDA LDA $0778                    A:92 X:00 Y:02 P:A5 SP:D4
8EA3  09 04    ORA ORA #$04                     A:14 X:00 Y:02 P:25 SP:D4
8EA5  B0 02    BCS BCS #$02                     A:14 X:00 Y:02 P:25 SP:D4
8EA9  20 ED 8E JSR JSR $8EED                    A:14 X:00 Y:02 P:25 SP:D4
8EED  8D 00 20 STA STA $2000                    A:14 X:00 Y:02 P:25 SP:D2
8EF0  8D 78 07 STA STA $0778                    A:14 X:00 Y:02 P:25 SP:D2
8EF3  60       RTS                              A:14 X:00 Y:02 P:25 SP:D2

<L003>  occurrences: 238  block_size:12  repeated_instances:2
sample block:
8EB6  B0 01    BCS BCS #$01                     A:09 X:09 Y:03 P:25 SP:D5
8EB9  B1 00    LDA LDA ($00),Y                  A:09 X:09 Y:03 P:25 SP:D5
8EBB  8D 07 20 STA STA $2007                    A:4A X:09 Y:03 P:25 SP:D5
8EBE  CA       DEX                              A:4A X:09 Y:03 P:25 SP:D5
8EBF  D0 F5    BNE BNE #$F5                     A:4A X:08 Y:03 P:25 SP:D5
8EB6  B0 01    BCS BCS #$01                     A:4A X:08 Y:03 P:25 SP:D5
8EB9  B1 00    LDA LDA ($00),Y                  A:4A X:08 Y:03 P:25 SP:D5
8EBB  8D 07 20 STA STA $2007                    A:4A X:08 Y:03 P:25 SP:D5
8EBE  CA       DEX                              A:4A X:08 Y:03 P:25 SP:D5
8EBF  D0 F5    BNE BNE #$F5                     A:4A X:07 Y:03 P:25 SP:D5
8EB6  B0 01    BCS BCS #$01                     A:4A X:01 Y:03 P:25 SP:D5
8EB9  B1 00    LDA LDA ($00),Y                  A:4A X:01 Y:03 P:25 SP:D5

<L018>  occurrences: 46  block_size:4  repeated_instances:2
sample block:
8ED2  A9 00    LDA LDA #$00                     A:3F X:00 Y:03 P:24 SP:D5
8ED4  8D 06 20 STA STA $2006                    A:00 X:00 Y:03 P:26 SP:D5
8ED7  8D 06 20 STA STA $2006                    A:00 X:00 Y:03 P:26 SP:D5
8EDA  8D 06 20 STA STA $2006                    A:00 X:00 Y:03 P:26 SP:D5

<L008>  occurrences: 106  block_size:3  repeated_instances:2
sample block:
8E92  8D 06 20 STA STA $2006                    A:20 X:00 Y:00 P:24 SP:D5
8E95  C8       INY                              A:20 X:00 Y:00 P:24 SP:D5
8E96  B1 00    LDA LDA ($00),Y                  A:20 X:00 Y:01 P:24 SP:D5

<L003>  occurrences: 238  block_size:12  repeated_instances:2
sample block:
8EA0  AD 78 07 LDA LDA $0778                    A:14 X:00 Y:02 P:24 SP:D4
8EA3  09 04    ORA ORA #$04                     A:14 X:00 Y:02 P:24 SP:D4
8EA5  B0 02    BCS BCS #$02                     A:14 X:00 Y:02 P:24 SP:D4
8EA7  29 FB    AND AND #$FB                     A:14 X:00 Y:02 P:24 SP:D4
8EA9  20 ED 8E JSR JSR $8EED                    A:10 X:00 Y:02 P:24 SP:D4
8EED  8D 00 20 STA STA $2000                    A:10 X:00 Y:02 P:24 SP:D2
8EF0  8D 78 07 STA STA $0778                    A:10 X:00 Y:02 P:24 SP:D2
8EF3  60       RTS                              A:10 X:00 Y:02 P:24 SP:D2
8EAC  68       PLA                              A:10 X:00 Y:02 P:24 SP:D4
8EAD  0A       ASL A                            A:14 X:00 Y:02 P:24 SP:D5
8EAE  90 03    BCC BCC #$03                     A:28 X:00 Y:02 P:24 SP:D5
8EB3  4A       LSR A                            A:28 X:00 Y:02 P:24 SP:D5

<L002>  occurrences: 396  block_size:2  repeated_instances:2
sample block:
8EBE  CA       DEX                              A:D1 X:09 Y:04 P:A4 SP:D5
8EBF  D0 F5    BNE BNE #$F5                     A:D1 X:08 Y:04 P:24 SP:D5

<L003>  occurrences: 238  block_size:12  repeated_instances:4
sample block:
8EB9  B1 00    LDA LDA ($00),Y                  A:D1 X:08 Y:05 P:24 SP:D5
8EBB  8D 07 20 STA STA $2007                    A:D8 X:08 Y:05 P:A4 SP:D5
8EBE  CA       DEX                              A:D8 X:08 Y:05 P:A4 SP:D5
8EBF  D0 F5    BNE BNE #$F5                     A:D8 X:07 Y:05 P:24 SP:D5
8EB6  B0 01    BCS BCS #$01                     A:D8 X:07 Y:05 P:24 SP:D5
8EB8  C8       INY                              A:D8 X:07 Y:05 P:24 SP:D5
8EB9  B1 00    LDA LDA ($00),Y                  A:D8 X:06 Y:07 P:24 SP:D5
8EBB  8D 07 20 STA STA $2007                    A:DE X:06 Y:07 P:A4 SP:D5
8EBE  CA       DEX                              A:DE X:06 Y:07 P:A4 SP:D5
8EBF  D0 F5    BNE BNE #$F5                     A:DE X:05 Y:07 P:24 SP:D5
8EB6  B0 01    BCS BCS #$01                     A:DE X:05 Y:07 P:24 SP:D5
8EB8  C8       INY                              A:DE X:05 Y:07 P:24 SP:D5

<L018>  occurrences: 46  block_size:4  repeated_instances:2
sample block:
8ECF  8D 06 20 STA STA $2006                    A:3F X:00 Y:0C P:24 SP:D5
8ED2  A9 00    LDA LDA #$00                     A:3F X:00 Y:0C P:24 SP:D5
8ED4  8D 06 20 STA STA $2006                    A:00 X:00 Y:0C P:26 SP:D5
8ED7  8D 06 20 STA STA $2006                    A:00 X:00 Y:0C P:26 SP:D5

<L008>  occurrences: 106  block_size:3  repeated_instances:2
sample block:
8E92  8D 06 20 STA STA $2006                    A:20 X:00 Y:00 P:24 SP:D5
8E95  C8       INY                              A:20 X:00 Y:00 P:24 SP:D5
8E96  B1 00    LDA LDA ($00),Y                  A:20 X:00 Y:01 P:24 SP:D5

<L003>  occurrences: 238  block_size:12  repeated_instances:2
sample block:
8EA0  AD 78 07 LDA LDA $0778                    A:14 X:00 Y:02 P:24 SP:D4
8EA3  09 04    ORA ORA #$04                     A:10 X:00 Y:02 P:24 SP:D4
8EA5  B0 02    BCS BCS #$02                     A:14 X:00 Y:02 P:24 SP:D4
8EA7  29 FB    AND AND #$FB                     A:14 X:00 Y:02 P:24 SP:D4
8EA9  20 ED 8E JSR JSR $8EED                    A:10 X:00 Y:02 P:24 SP:D4
8EED  8D 00 20 STA STA $2000                    A:10 X:00 Y:02 P:24 SP:D2
8EF0  8D 78 07 STA STA $0778                    A:10 X:00 Y:02 P:24 SP:D2
8EF3  60       RTS                              A:10 X:00 Y:02 P:24 SP:D2
8EAC  68       PLA                              A:10 X:00 Y:02 P:24 SP:D4
8EAD  0A       ASL A                            A:14 X:00 Y:02 P:24 SP:D5
8EAE  90 03    BCC BCC #$03                     A:28 X:00 Y:02 P:24 SP:D5
8EB3  4A       LSR A                            A:28 X:00 Y:02 P:24 SP:D5

<L002>  occurrences: 396  block_size:2  repeated_instances:2
sample block:
8EBE  CA       DEX                              A:D3 X:09 Y:04 P:A4 SP:D5
8EBF  D0 F5    BNE BNE #$F5                     A:D3 X:08 Y:04 P:24 SP:D5

<L003>  occurrences: 238  block_size:12  repeated_instances:4
sample block:
8EB9  B1 00    LDA LDA ($00),Y                  A:D3 X:08 Y:05 P:24 SP:D5
8EBB  8D 07 20 STA STA $2007                    A:DB X:08 Y:05 P:A4 SP:D5
8EBE  CA       DEX                              A:DB X:08 Y:05 P:A4 SP:D5
8EBF  D0 F5    BNE BNE #$F5                     A:DB X:07 Y:05 P:24 SP:D5
8EB6  B0 01    BCS BCS #$01                     A:DB X:07 Y:05 P:24 SP:D5
8EB8  C8       INY                              A:DB X:07 Y:05 P:24 SP:D5
8EB9  B1 00    LDA LDA ($00),Y                  A:DB X:05 Y:08 P:24 SP:D5
8EBB  8D 07 20 STA STA $2007                    A:D9 X:05 Y:08 P:A4 SP:D5
8EBE  CA       DEX                              A:D9 X:05 Y:08 P:A4 SP:D5
8EBF  D0 F5    BNE BNE #$F5                     A:D9 X:04 Y:08 P:24 SP:D5
8EB6  B0 01    BCS BCS #$01                     A:D9 X:04 Y:08 P:24 SP:D5
8EB8  C8       INY                              A:D9 X:04 Y:08 P:24 SP:D5

<L001>  occurrences: 791  block_size:1  repeated_instances:3
sample block:
8EE0  A0 00    LDY LDY #$00                     A:00 X:00 Y:0C P:26 SP:D5

<L008>  occurrences: 106  block_size:3  repeated_instances:2
sample block:
8E92  8D 06 20 STA STA $2006                    A:20 X:00 Y:00 P:24 SP:D5
8E95  C8       INY                              A:20 X:00 Y:00 P:24 SP:D5
8E96  B1 00    LDA LDA ($00),Y                  A:20 X:00 Y:01 P:24 SP:D5

<L003>  occurrences: 238  block_size:12  repeated_instances:7
sample block:
8EA0  AD 78 07 LDA LDA $0778                    A:14 X:00 Y:02 P:24 SP:D4
8EA3  09 04    ORA ORA #$04                     A:10 X:00 Y:02 P:24 SP:D4
8EA5  B0 02    BCS BCS #$02                     A:14 X:00 Y:02 P:24 SP:D4
8EA7  29 FB    AND AND #$FB                     A:14 X:00 Y:02 P:24 SP:D4
8EA9  20 ED 8E JSR JSR $8EED                    A:10 X:00 Y:02 P:24 SP:D4
8EED  8D 00 20 STA STA $2000                    A:10 X:00 Y:02 P:24 SP:D2
8EF0  8D 78 07 STA STA $0778                    A:10 X:00 Y:02 P:24 SP:D2
8EF3  60       RTS                              A:10 X:00 Y:02 P:24 SP:D2
8EAC  68       PLA                              A:10 X:00 Y:02 P:24 SP:D4
8EAD  0A       ASL A                            A:14 X:00 Y:02 P:24 SP:D5
8EAE  90 03    BCC BCC #$03                     A:28 X:00 Y:02 P:24 SP:D5
8EB3  4A       LSR A                            A:28 X:00 Y:02 P:24 SP:D5

<L005>  occurrences: 138  block_size:3  repeated_instances:2
sample block:
8ED4  8D 06 20 STA STA $2006                    A:00 X:00 Y:0C P:26 SP:D5
8ED7  8D 06 20 STA STA $2006                    A:00 X:00 Y:0C P:26 SP:D5
8EDA  8D 06 20 STA STA $2006                    A:00 X:00 Y:0C P:26 SP:D5

<L008>  occurrences: 106  block_size:3  repeated_instances:2
sample block:
8E92  8D 06 20 STA STA $2006                    A:21 X:00 Y:00 P:24 SP:D5
8E95  C8       INY                              A:21 X:00 Y:00 P:24 SP:D5
8E96  B1 00    LDA LDA ($00),Y                  A:21 X:00 Y:01 P:24 SP:D5

<L003>  occurrences: 238  block_size:12  repeated_instances:7
sample block:
8EA0  AD 78 07 LDA LDA $0778                    A:14 X:00 Y:02 P:24 SP:D4
8EA3  09 04    ORA ORA #$04                     A:10 X:00 Y:02 P:24 SP:D4
8EA5  B0 02    BCS BCS #$02                     A:14 X:00 Y:02 P:24 SP:D4
8EA7  29 FB    AND AND #$FB                     A:14 X:00 Y:02 P:24 SP:D4
8EA9  20 ED 8E JSR JSR $8EED                    A:10 X:00 Y:02 P:24 SP:D4
8EED  8D 00 20 STA STA $2000                    A:10 X:00 Y:02 P:24 SP:D2
8EF0  8D 78 07 STA STA $0778                    A:10 X:00 Y:02 P:24 SP:D2
8EF3  60       RTS                              A:10 X:00 Y:02 P:24 SP:D2
8EAC  68       PLA                              A:10 X:00 Y:02 P:24 SP:D4
8EAD  0A       ASL A                            A:14 X:00 Y:02 P:24 SP:D5
8EAE  90 03    BCC BCC #$03                     A:28 X:00 Y:02 P:24 SP:D5
8EB3  4A       LSR A                            A:28 X:00 Y:02 P:24 SP:D5

<L005>  occurrences: 138  block_size:3  repeated_instances:2
sample block:
8ED4  8D 06 20 STA STA $2006                    A:00 X:00 Y:0C P:26 SP:D5
8ED7  8D 06 20 STA STA $2006                    A:00 X:00 Y:0C P:26 SP:D5
8EDA  8D 06 20 STA STA $2006                    A:00 X:00 Y:0C P:26 SP:D5

<L008>  occurrences: 106  block_size:3  repeated_instances:2
sample block:
8E92  8D 06 20 STA STA $2006                    A:21 X:00 Y:00 P:24 SP:D5
8E95  C8       INY                              A:21 X:00 Y:00 P:24 SP:D5
8E96  B1 00    LDA LDA ($00),Y                  A:21 X:00 Y:01 P:24 SP:D5

<L003>  occurrences: 238  block_size:12  repeated_instances:12
sample block:
8EA0  AD 78 07 LDA LDA $0778                    A:28 X:00 Y:02 P:24 SP:D4
8EA3  09 04    ORA ORA #$04                     A:10 X:00 Y:02 P:24 SP:D4
8EA5  B0 02    BCS BCS #$02                     A:14 X:00 Y:02 P:24 SP:D4
8EA7  29 FB    AND AND #$FB                     A:14 X:00 Y:02 P:24 SP:D4
8EA9  20 ED 8E JSR JSR $8EED                    A:10 X:00 Y:02 P:24 SP:D4
8EED  8D 00 20 STA STA $2000                    A:10 X:00 Y:02 P:24 SP:D2
8EF0  8D 78 07 STA STA $0778                    A:10 X:00 Y:02 P:24 SP:D2
8EF3  60       RTS                              A:10 X:00 Y:02 P:24 SP:D2
8EAC  68       PLA                              A:10 X:00 Y:02 P:24 SP:D4
8EAD  0A       ASL A                            A:28 X:00 Y:02 P:24 SP:D5
8EAE  90 03    BCC BCC #$03                     A:50 X:00 Y:02 P:24 SP:D5
8EB3  4A       LSR A                            A:50 X:00 Y:02 P:24 SP:D5

<L005>  occurrences: 138  block_size:3  repeated_instances:2
sample block:
8ED4  8D 06 20 STA STA $2006                    A:00 X:00 Y:16 P:26 SP:D5
8ED7  8D 06 20 STA STA $2006                    A:00 X:00 Y:16 P:26 SP:D5
8EDA  8D 06 20 STA STA $2006                    A:00 X:00 Y:16 P:26 SP:D5

<L008>  occurrences: 106  block_size:3  repeated_instances:2
sample block:
8E92  8D 06 20 STA STA $2006                    A:21 X:00 Y:00 P:24 SP:D5
8E95  C8       INY                              A:21 X:00 Y:00 P:24 SP:D5
8E96  B1 00    LDA LDA ($00),Y                  A:21 X:00 Y:01 P:24 SP:D5

<L032>  occurrences: 22  block_size:11  repeated_instances:2
sample block:
8EA0  AD 78 07 LDA LDA $0778                    A:28 X:00 Y:02 P:24 SP:D4
8EA3  09 04    ORA ORA #$04                     A:10 X:00 Y:02 P:24 SP:D4
8EA5  B0 02    BCS BCS #$02                     A:14 X:00 Y:02 P:24 SP:D4
8EA7  29 FB    AND AND #$FB                     A:14 X:00 Y:02 P:24 SP:D4
8EA9  20 ED 8E JSR JSR $8EED                    A:10 X:00 Y:02 P:24 SP:D4
8EED  8D 00 20 STA STA $2000                    A:10 X:00 Y:02 P:24 SP:D2
8EF0  8D 78 07 STA STA $0778                    A:10 X:00 Y:02 P:24 SP:D2
8EF3  60       RTS                              A:10 X:00 Y:02 P:24 SP:D2
8EAC  68       PLA                              A:10 X:00 Y:02 P:24 SP:D4
8EAD  0A       ASL A                            A:28 X:00 Y:02 P:24 SP:D5
8EAE  90 03    BCC BCC #$03                     A:50 X:00 Y:02 P:24 SP:D5

<L003>  occurrences: 238  block_size:12  repeated_instances:2
sample block:
8EB9  B1 00    LDA LDA ($00),Y                  A:DB X:13 Y:04 P:24 SP:D5
8EBB  8D 07 20 STA STA $2007                    A:42 X:13 Y:04 P:24 SP:D5
8EBE  CA       DEX                              A:42 X:13 Y:04 P:24 SP:D5
8EBF  D0 F5    BNE BNE #$F5                     A:42 X:12 Y:04 P:24 SP:D5
8EB6  B0 01    BCS BCS #$01                     A:42 X:12 Y:04 P:24 SP:D5
8EB8  C8       INY                              A:42 X:12 Y:04 P:24 SP:D5
8EB9  B1 00    LDA LDA ($00),Y                  A:42 X:11 Y:06 P:24 SP:D5
8EBB  8D 07 20 STA STA $2007                    A:DB X:11 Y:06 P:A4 SP:D5
8EBE  CA       DEX                              A:DB X:11 Y:06 P:A4 SP:D5
8EBF  D0 F5    BNE BNE #$F5                     A:DB X:10 Y:06 P:24 SP:D5
8EB6  B0 01    BCS BCS #$01                     A:DB X:10 Y:06 P:24 SP:D5
8EB8  C8       INY                              A:DB X:10 Y:06 P:24 SP:D5

<L005>  occurrences: 138  block_size:3  repeated_instances:2
sample block:
8EB9  B1 00    LDA LDA ($00),Y                  A:DB X:0E Y:09 P:24 SP:D5
8EBB  8D 07 20 STA STA $2007                    A:42 X:0E Y:09 P:24 SP:D5
8EBE  CA       DEX                              A:42 X:0E Y:09 P:24 SP:D5

<L003>  occurrences: 238  block_size:12  repeated_instances:7
sample block:
8EB9  B1 00    LDA LDA ($00),Y                  A:42 X:0D Y:0A P:24 SP:D5
8EBB  8D 07 20 STA STA $2007                    A:DB X:0D Y:0A P:A4 SP:D5
8EBE  CA       DEX                              A:DB X:0D Y:0A P:A4 SP:D5
8EBF  D0 F5    BNE BNE #$F5                     A:DB X:0C Y:0A P:24 SP:D5
8EB6  B0 01    BCS BCS #$01                     A:DB X:0C Y:0A P:24 SP:D5
8EB8  C8       INY                              A:DB X:0C Y:0A P:24 SP:D5
8EB9  B1 00    LDA LDA ($00),Y                  A:DB X:0B Y:0C P:24 SP:D5
8EBB  8D 07 20 STA STA $2007                    A:42 X:0B Y:0C P:24 SP:D5
8EBE  CA       DEX                              A:42 X:0B Y:0C P:24 SP:D5
8EBF  D0 F5    BNE BNE #$F5                     A:42 X:0A Y:0C P:24 SP:D5
8EB6  B0 01    BCS BCS #$01                     A:42 X:0A Y:0C P:24 SP:D5
8EB8  C8       INY                              A:42 X:0A Y:0C P:24 SP:D5

<L001>  occurrences: 791  block_size:1  repeated_instances:3
sample block:
8EE0  A0 00    LDY LDY #$00                     A:00 X:00 Y:16 P:26 SP:D5

<L008>  occurrences: 106  block_size:3  repeated_instances:2
sample block:
8E92  8D 06 20 STA STA $2006                    A:21 X:00 Y:00 P:24 SP:D5
8E95  C8       INY                              A:21 X:00 Y:00 P:24 SP:D5
8E96  B1 00    LDA LDA ($00),Y                  A:21 X:00 Y:01 P:24 SP:D5

<L031>  occurrences: 22  block_size:8  repeated_instances:2
sample block:
8EA0  AD 78 07 LDA LDA $0778                    A:8C X:00 Y:02 P:A4 SP:D4
8EA3  09 04    ORA ORA #$04                     A:10 X:00 Y:02 P:24 SP:D4
8EA5  B0 02    BCS BCS #$02                     A:14 X:00 Y:02 P:24 SP:D4
8EA7  29 FB    AND AND #$FB                     A:14 X:00 Y:02 P:24 SP:D4
8EA9  20 ED 8E JSR JSR $8EED                    A:10 X:00 Y:02 P:24 SP:D4
8EED  8D 00 20 STA STA $2000                    A:10 X:00 Y:02 P:24 SP:D2
8EF0  8D 78 07 STA STA $0778                    A:10 X:00 Y:02 P:24 SP:D2
8EF3  60       RTS                              A:10 X:00 Y:02 P:24 SP:D2

<L003>  occurrences: 238  block_size:12  repeated_instances:2
sample block:
8EB6  B0 01    BCS BCS #$01                     A:06 X:06 Y:03 P:25 SP:D5
8EB9  B1 00    LDA LDA ($00),Y                  A:06 X:06 Y:03 P:25 SP:D5
8EBB  8D 07 20 STA STA $2007                    A:DB X:06 Y:03 P:A5 SP:D5
8EBE  CA       DEX                              A:DB X:06 Y:03 P:A5 SP:D5
8EBF  D0 F5    BNE BNE #$F5                     A:DB X:05 Y:03 P:25 SP:D5
8EB6  B0 01    BCS BCS #$01                     A:DB X:05 Y:03 P:25 SP:D5
8EB9  B1 00    LDA LDA ($00),Y                  A:DB X:05 Y:03 P:25 SP:D5
8EBB  8D 07 20 STA STA $2007                    A:DB X:05 Y:03 P:A5 SP:D5
8EBE  CA       DEX                              A:DB X:05 Y:03 P:A5 SP:D5
8EBF  D0 F5    BNE BNE #$F5                     A:DB X:04 Y:03 P:25 SP:D5
8EC1  38       SEC                              A:DB X:00 Y:03 P:27 SP:D5
8EC2  98       TYA                              A:DB X:00 Y:03 P:27 SP:D5

<L001>  occurrences: 791  block_size:1  repeated_instances:3
sample block:
8EE0  A0 00    LDY LDY #$00                     A:00 X:00 Y:03 P:26 SP:D5

<L008>  occurrences: 106  block_size:3  repeated_instances:2
sample block:
8E92  8D 06 20 STA STA $2006                    A:21 X:00 Y:00 P:24 SP:D5
8E95  C8       INY                              A:21 X:00 Y:00 P:24 SP:D5
8E96  B1 00    LDA LDA ($00),Y                  A:21 X:00 Y:01 P:24 SP:D5

<L032>  occurrences: 22  block_size:11  repeated_instances:2
sample block:
8EA0  AD 78 07 LDA LDA $0778                    A:1C X:00 Y:02 P:24 SP:D4
8EA3  09 04    ORA ORA #$04                     A:10 X:00 Y:02 P:24 SP:D4
8EA5  B0 02    BCS BCS #$02                     A:14 X:00 Y:02 P:24 SP:D4
8EA7  29 FB    AND AND #$FB                     A:14 X:00 Y:02 P:24 SP:D4
8EA9  20 ED 8E JSR JSR $8EED                    A:10 X:00 Y:02 P:24 SP:D4
8EED  8D 00 20 STA STA $2000                    A:10 X:00 Y:02 P:24 SP:D2
8EF0  8D 78 07 STA STA $0778                    A:10 X:00 Y:02 P:24 SP:D2
8EF3  60       RTS                              A:10 X:00 Y:02 P:24 SP:D2
8EAC  68       PLA                              A:10 X:00 Y:02 P:24 SP:D4
8EAD  0A       ASL A                            A:1C X:00 Y:02 P:24 SP:D5
8EAE  90 03    BCC BCC #$03                     A:38 X:00 Y:02 P:24 SP:D5

<L003>  occurrences: 238  block_size:12  repeated_instances:3
sample block:
8EB9  B1 00    LDA LDA ($00),Y                  A:DF X:0D Y:04 P:24 SP:D5
8EBB  8D 07 20 STA STA $2007                    A:DB X:0D Y:04 P:A4 SP:D5
8EBE  CA       DEX                              A:DB X:0D Y:04 P:A4 SP:D5
8EBF  D0 F5    BNE BNE #$F5                     A:DB X:0C Y:04 P:24 SP:D5
8EB6  B0 01    BCS BCS #$01                     A:DB X:0C Y:04 P:24 SP:D5
8EB8  C8       INY                              A:DB X:0C Y:04 P:24 SP:D5
8EB9  B1 00    LDA LDA ($00),Y                  A:DB X:0A Y:07 P:24 SP:D5
8EBB  8D 07 20 STA STA $2007                    A:26 X:0A Y:07 P:24 SP:D5
8EBE  CA       DEX                              A:26 X:0A Y:07 P:24 SP:D5
8EBF  D0 F5    BNE BNE #$F5                     A:26 X:09 Y:07 P:24 SP:D5
8EB6  B0 01    BCS BCS #$01                     A:26 X:09 Y:07 P:24 SP:D5
8EB8  C8       INY                              A:26 X:09 Y:07 P:24 SP:D5

<L003>  occurrences: 238  block_size:12  repeated_instances:3
sample block:
8EB9  B1 00    LDA LDA ($00),Y                  A:DF X:05 Y:0C P:24 SP:D5
8EBB  8D 07 20 STA STA $2007                    A:DB X:05 Y:0C P:A4 SP:D5
8EBE  CA       DEX                              A:DB X:05 Y:0C P:A4 SP:D5
8EBF  D0 F5    BNE BNE #$F5                     A:DB X:04 Y:0C P:24 SP:D5
8EB6  B0 01    BCS BCS #$01                     A:DB X:04 Y:0C P:24 SP:D5
8EB8  C8       INY                              A:DB X:04 Y:0C P:24 SP:D5
8EB9  B1 00    LDA LDA ($00),Y                  A:DB X:03 Y:0E P:24 SP:D5
8EBB  8D 07 20 STA STA $2007                    A:E4 X:03 Y:0E P:A4 SP:D5
8EBE  CA       DEX                              A:E4 X:03 Y:0E P:A4 SP:D5
8EBF  D0 F5    BNE BNE #$F5                     A:E4 X:02 Y:0E P:24 SP:D5
8EB6  B0 01    BCS BCS #$01                     A:E4 X:02 Y:0E P:24 SP:D5
8EB8  C8       INY                              A:E4 X:02 Y:0E P:24 SP:D5

<L001>  occurrences: 791  block_size:1  repeated_instances:3
sample block:
8EE0  A0 00    LDY LDY #$00                     A:00 X:00 Y:10 P:26 SP:D5

<L008>  occurrences: 106  block_size:3  repeated_instances:2
sample block:
8E92  8D 06 20 STA STA $2006                    A:21 X:00 Y:00 P:24 SP:D5
8E95  C8       INY                              A:21 X:00 Y:00 P:24 SP:D5
8E96  B1 00    LDA LDA ($00),Y                  A:21 X:00 Y:01 P:24 SP:D5

<L031>  occurrences: 22  block_size:8  repeated_instances:2
sample block:
8EA0  AD 78 07 LDA LDA $0778                    A:28 X:00 Y:02 P:24 SP:D4
8EA3  09 04    ORA ORA #$04                     A:10 X:00 Y:02 P:24 SP:D4
8EA5  B0 02    BCS BCS #$02                     A:14 X:00 Y:02 P:24 SP:D4
8EA7  29 FB    AND AND #$FB                     A:14 X:00 Y:02 P:24 SP:D4
8EA9  20 ED 8E JSR JSR $8EED                    A:10 X:00 Y:02 P:24 SP:D4
8EED  8D 00 20 STA STA $2000                    A:10 X:00 Y:02 P:24 SP:D2
8EF0  8D 78 07 STA STA $0778                    A:10 X:00 Y:02 P:24 SP:D2
8EF3  60       RTS                              A:10 X:00 Y:02 P:24 SP:D2

<L003>  occurrences: 238  block_size:12  repeated_instances:2
sample block:
8EB9  B1 00    LDA LDA ($00),Y                  A:14 X:14 Y:03 P:24 SP:D5
8EBB  8D 07 20 STA STA $2007                    A:DB X:14 Y:03 P:A4 SP:D5
8EBE  CA       DEX                              A:DB X:14 Y:03 P:A4 SP:D5
8EBF  D0 F5    BNE BNE #$F5                     A:DB X:13 Y:03 P:24 SP:D5
8EB6  B0 01    BCS BCS #$01                     A:DB X:13 Y:03 P:24 SP:D5
8EB8  C8       INY                              A:DB X:13 Y:03 P:24 SP:D5
8EB9  B1 00    LDA LDA ($00),Y                  A:DB X:11 Y:06 P:24 SP:D5
8EBB  8D 07 20 STA STA $2007                    A:DE X:11 Y:06 P:A4 SP:D5
8EBE  CA       DEX                              A:DE X:11 Y:06 P:A4 SP:D5
8EBF  D0 F5    BNE BNE #$F5                     A:DE X:10 Y:06 P:24 SP:D5
8EB6  B0 01    BCS BCS #$01                     A:DE X:10 Y:06 P:24 SP:D5
8EB8  C8       INY                              A:DE X:10 Y:06 P:24 SP:D5

<L005>  occurrences: 138  block_size:3  repeated_instances:2
sample block:
8EB9  B1 00    LDA LDA ($00),Y                  A:DB X:0E Y:09 P:24 SP:D5
8EBB  8D 07 20 STA STA $2007                    A:E0 X:0E Y:09 P:A4 SP:D5
8EBE  CA       DEX                              A:E0 X:0E Y:09 P:A4 SP:D5

<L003>  occurrences: 238  block_size:12  repeated_instances:3
sample block:
8EB9  B1 00    LDA LDA ($00),Y                  A:E0 X:0D Y:0A P:24 SP:D5
8EBB  8D 07 20 STA STA $2007                    A:DB X:0D Y:0A P:A4 SP:D5
8EBE  CA       DEX                              A:DB X:0D Y:0A P:A4 SP:D5
8EBF  D0 F5    BNE BNE #$F5                     A:DB X:0C Y:0A P:24 SP:D5
8EB6  B0 01    BCS BCS #$01                     A:DB X:0C Y:0A P:24 SP:D5
8EB8  C8       INY                              A:DB X:0C Y:0A P:24 SP:D5
8EB9  B1 00    LDA LDA ($00),Y                  A:DB X:0A Y:0D P:24 SP:D5
8EBB  8D 07 20 STA STA $2007                    A:26 X:0A Y:0D P:24 SP:D5
8EBE  CA       DEX                              A:26 X:0A Y:0D P:24 SP:D5
8EBF  D0 F5    BNE BNE #$F5                     A:26 X:09 Y:0D P:24 SP:D5
8EB6  B0 01    BCS BCS #$01                     A:26 X:09 Y:0D P:24 SP:D5
8EB8  C8       INY                              A:26 X:09 Y:0D P:24 SP:D5

<L003>  occurrences: 238  block_size:12  repeated_instances:3
sample block:
8EB9  B1 00    LDA LDA ($00),Y                  A:E0 X:05 Y:12 P:24 SP:D5
8EBB  8D 07 20 STA STA $2007                    A:DB X:05 Y:12 P:A4 SP:D5
8EBE  CA       DEX                              A:DB X:05 Y:12 P:A4 SP:D5
8EBF  D0 F5    BNE BNE #$F5                     A:DB X:04 Y:12 P:24 SP:D5
8EB6  B0 01    BCS BCS #$01                     A:DB X:04 Y:12 P:24 SP:D5
8EB8  C8       INY                              A:DB X:04 Y:12 P:24 SP:D5
8EB9  B1 00    LDA LDA ($00),Y                  A:DB X:03 Y:14 P:24 SP:D5
8EBB  8D 07 20 STA STA $2007                    A:E6 X:03 Y:14 P:A4 SP:D5
8EBE  CA       DEX                              A:E6 X:03 Y:14 P:A4 SP:D5
8EBF  D0 F5    BNE BNE #$F5                     A:E6 X:02 Y:14 P:24 SP:D5
8EB6  B0 01    BCS BCS #$01                     A:E6 X:02 Y:14 P:24 SP:D5
8EB8  C8       INY                              A:E6 X:02 Y:14 P:24 SP:D5

<L001>  occurrences: 791  block_size:1  repeated_instances:3
sample block:
8EE0  A0 00    LDY LDY #$00                     A:00 X:00 Y:16 P:26 SP:D5

<L008>  occurrences: 106  block_size:3  repeated_instances:2
sample block:
8E92  8D 06 20 STA STA $2006                    A:21 X:00 Y:00 P:24 SP:D5
8E95  C8       INY                              A:21 X:00 Y:00 P:24 SP:D5
8E96  B1 00    LDA LDA ($00),Y                  A:21 X:00 Y:01 P:24 SP:D5

<L031>  occurrences: 22  block_size:8  repeated_instances:2
sample block:
8EA0  AD 78 07 LDA LDA $0778                    A:28 X:00 Y:02 P:24 SP:D4
8EA3  09 04    ORA ORA #$04                     A:10 X:00 Y:02 P:24 SP:D4
8EA5  B0 02    BCS BCS #$02                     A:14 X:00 Y:02 P:24 SP:D4
8EA7  29 FB    AND AND #$FB                     A:14 X:00 Y:02 P:24 SP:D4
8EA9  20 ED 8E JSR JSR $8EED                    A:10 X:00 Y:02 P:24 SP:D4
8EED  8D 00 20 STA STA $2000                    A:10 X:00 Y:02 P:24 SP:D2
8EF0  8D 78 07 STA STA $0778                    A:10 X:00 Y:02 P:24 SP:D2
8EF3  60       RTS                              A:10 X:00 Y:02 P:24 SP:D2

<L010>  occurrences: 80  block_size:6  repeated_instances:2
sample block:
8EB9  B1 00    LDA LDA ($00),Y                  A:14 X:14 Y:03 P:24 SP:D5
8EBB  8D 07 20 STA STA $2007                    A:DB X:14 Y:03 P:A4 SP:D5
8EBE  CA       DEX                              A:DB X:14 Y:03 P:A4 SP:D5
8EBF  D0 F5    BNE BNE #$F5                     A:DB X:13 Y:03 P:24 SP:D5
8EB6  B0 01    BCS BCS #$01                     A:DB X:13 Y:03 P:24 SP:D5
8EB8  C8       INY                              A:DB X:13 Y:03 P:24 SP:D5

<L003>  occurrences: 238  block_size:12  repeated_instances:3
sample block:
8EB9  B1 00    LDA LDA ($00),Y                  A:42 X:0F Y:08 P:24 SP:D5
8EBB  8D 07 20 STA STA $2007                    A:DB X:0F Y:08 P:A4 SP:D5
8EBE  CA       DEX                              A:DB X:0F Y:08 P:A4 SP:D5
8EBF  D0 F5    BNE BNE #$F5                     A:DB X:0E Y:08 P:24 SP:D5
8EB6  B0 01    BCS BCS #$01                     A:DB X:0E Y:08 P:24 SP:D5
8EB8  C8       INY                              A:DB X:0E Y:08 P:24 SP:D5
8EB9  B1 00    LDA LDA ($00),Y                  A:DB X:0C Y:0B P:24 SP:D5
8EBB  8D 07 20 STA STA $2007                    A:D4 X:0C Y:0B P:A4 SP:D5
8EBE  CA       DEX                              A:D4 X:0C Y:0B P:A4 SP:D5
8EBF  D0 F5    BNE BNE #$F5                     A:D4 X:0B Y:0B P:24 SP:D5
8EB6  B0 01    BCS BCS #$01                     A:D4 X:0B Y:0B P:24 SP:D5
8EB8  C8       INY                              A:D4 X:0B Y:0B P:24 SP:D5

<L003>  occurrences: 238  block_size:12  repeated_instances:4
sample block:
8EB9  B1 00    LDA LDA ($00),Y                  A:D9 X:07 Y:10 P:24 SP:D5
8EBB  8D 07 20 STA STA $2007                    A:DB X:07 Y:10 P:A4 SP:D5
8EBE  CA       DEX                              A:DB X:07 Y:10 P:A4 SP:D5
8EBF  D0 F5    BNE BNE #$F5                     A:DB X:06 Y:10 P:24 SP:D5
8EB6  B0 01    BCS BCS #$01                     A:DB X:06 Y:10 P:24 SP:D5
8EB8  C8       INY                              A:DB X:06 Y:10 P:24 SP:D5
8EB9  B1 00    LDA LDA ($00),Y                  A:DB X:05 Y:12 P:24 SP:D5
8EBB  8D 07 20 STA STA $2007                    A:D4 X:05 Y:12 P:A4 SP:D5
8EBE  CA       DEX                              A:D4 X:05 Y:12 P:A4 SP:D5
8EBF  D0 F5    BNE BNE #$F5                     A:D4 X:04 Y:12 P:24 SP:D5
8EB6  B0 01    BCS BCS #$01                     A:D4 X:04 Y:12 P:24 SP:D5
8EB8  C8       INY                              A:D4 X:04 Y:12 P:24 SP:D5

<L001>  occurrences: 791  block_size:1  repeated_instances:3
sample block:
8EE0  A0 00    LDY LDY #$00                     A:00 X:00 Y:16 P:26 SP:D5

<L008>  occurrences: 106  block_size:3  repeated_instances:2
sample block:
8E92  8D 06 20 STA STA $2006                    A:21 X:00 Y:00 P:24 SP:D5
8E95  C8       INY                              A:21 X:00 Y:00 P:24 SP:D5
8E96  B1 00    LDA LDA ($00),Y                  A:21 X:00 Y:01 P:24 SP:D5

<L032>  occurrences: 22  block_size:11  repeated_instances:2
sample block:
8EA0  AD 78 07 LDA LDA $0778                    A:2C X:00 Y:02 P:24 SP:D4
8EA3  09 04    ORA ORA #$04                     A:10 X:00 Y:02 P:24 SP:D4
8EA5  B0 02    BCS BCS #$02                     A:14 X:00 Y:02 P:24 SP:D4
8EA7  29 FB    AND AND #$FB                     A:14 X:00 Y:02 P:24 SP:D4
8EA9  20 ED 8E JSR JSR $8EED                    A:10 X:00 Y:02 P:24 SP:D4
8EED  8D 00 20 STA STA $2000                    A:10 X:00 Y:02 P:24 SP:D2
8EF0  8D 78 07 STA STA $0778                    A:10 X:00 Y:02 P:24 SP:D2
8EF3  60       RTS                              A:10 X:00 Y:02 P:24 SP:D2
8EAC  68       PLA                              A:10 X:00 Y:02 P:24 SP:D4
8EAD  0A       ASL A                            A:2C X:00 Y:02 P:24 SP:D5
8EAE  90 03    BCC BCC #$03                     A:58 X:00 Y:02 P:24 SP:D5

<L003>  occurrences: 238  block_size:12  repeated_instances:3
sample block:
8EB9  B1 00    LDA LDA ($00),Y                  A:5F X:15 Y:04 P:24 SP:D5
8EBB  8D 07 20 STA STA $2007                    A:95 X:15 Y:04 P:A4 SP:D5
8EBE  CA       DEX                              A:95 X:15 Y:04 P:A4 SP:D5
8EBF  D0 F5    BNE BNE #$F5                     A:95 X:14 Y:04 P:24 SP:D5
8EB6  B0 01    BCS BCS #$01                     A:95 X:14 Y:04 P:24 SP:D5
8EB8  C8       INY                              A:95 X:14 Y:04 P:24 SP:D5
8EB9  B1 00    LDA LDA ($00),Y                  A:95 X:0D Y:0C P:24 SP:D5
8EBB  8D 07 20 STA STA $2007                    A:97 X:0D Y:0C P:A4 SP:D5
8EBE  CA       DEX                              A:97 X:0D Y:0C P:A4 SP:D5
8EBF  D0 F5    BNE BNE #$F5                     A:97 X:0C Y:0C P:24 SP:D5
8EB6  B0 01    BCS BCS #$01                     A:97 X:0C Y:0C P:24 SP:D5
8EB8  C8       INY                              A:97 X:0C Y:0C P:24 SP:D5

<L003>  occurrences: 238  block_size:12  repeated_instances:4
sample block:
8EB9  B1 00    LDA LDA ($00),Y                  A:96 X:08 Y:11 P:24 SP:D5
8EBB  8D 07 20 STA STA $2007                    A:95 X:08 Y:11 P:A4 SP:D5
8EBE  CA       DEX                              A:95 X:08 Y:11 P:A4 SP:D5
8EBF  D0 F5    BNE BNE #$F5                     A:95 X:07 Y:11 P:24 SP:D5
8EB6  B0 01    BCS BCS #$01                     A:95 X:07 Y:11 P:24 SP:D5
8EB8  C8       INY                              A:95 X:07 Y:11 P:24 SP:D5
8EB9  B1 00    LDA LDA ($00),Y                  A:95 X:06 Y:13 P:24 SP:D5
8EBB  8D 07 20 STA STA $2007                    A:97 X:06 Y:13 P:A4 SP:D5
8EBE  CA       DEX                              A:97 X:06 Y:13 P:A4 SP:D5
8EBF  D0 F5    BNE BNE #$F5                     A:97 X:05 Y:13 P:24 SP:D5
8EB6  B0 01    BCS BCS #$01                     A:97 X:05 Y:13 P:24 SP:D5
8EB8  C8       INY                              A:97 X:05 Y:13 P:24 SP:D5

<L018>  occurrences: 46  block_size:4  repeated_instances:2
sample block:
8ECF  8D 06 20 STA STA $2006                    A:3F X:00 Y:18 P:24 SP:D5
8ED2  A9 00    LDA LDA #$00                     A:3F X:00 Y:18 P:24 SP:D5
8ED4  8D 06 20 STA STA $2006                    A:00 X:00 Y:18 P:26 SP:D5
8ED7  8D 06 20 STA STA $2006                    A:00 X:00 Y:18 P:26 SP:D5

<L008>  occurrences: 106  block_size:3  repeated_instances:2
sample block:
8E92  8D 06 20 STA STA $2006                    A:21 X:00 Y:00 P:24 SP:D5
8E95  C8       INY                              A:21 X:00 Y:00 P:24 SP:D5
8E96  B1 00    LDA LDA ($00),Y                  A:21 X:00 Y:01 P:24 SP:D5

<L003>  occurrences: 238  block_size:12  repeated_instances:9
sample block:
8EA0  AD 78 07 LDA LDA $0778                    A:1C X:00 Y:02 P:24 SP:D4
8EA3  09 04    ORA ORA #$04                     A:10 X:00 Y:02 P:24 SP:D4
8EA5  B0 02    BCS BCS #$02                     A:14 X:00 Y:02 P:24 SP:D4
8EA7  29 FB    AND AND #$FB                     A:14 X:00 Y:02 P:24 SP:D4
8EA9  20 ED 8E JSR JSR $8EED                    A:10 X:00 Y:02 P:24 SP:D4
8EED  8D 00 20 STA STA $2000                    A:10 X:00 Y:02 P:24 SP:D2
8EF0  8D 78 07 STA STA $0778                    A:10 X:00 Y:02 P:24 SP:D2
8EF3  60       RTS                              A:10 X:00 Y:02 P:24 SP:D2
8EAC  68       PLA                              A:10 X:00 Y:02 P:24 SP:D4
8EAD  0A       ASL A                            A:1C X:00 Y:02 P:24 SP:D5
8EAE  90 03    BCC BCC #$03                     A:38 X:00 Y:02 P:24 SP:D5
8EB3  4A       LSR A                            A:38 X:00 Y:02 P:24 SP:D5

<L005>  occurrences: 138  block_size:3  repeated_instances:2
sample block:
8ED4  8D 06 20 STA STA $2006                    A:00 X:00 Y:10 P:26 SP:D5
8ED7  8D 06 20 STA STA $2006                    A:00 X:00 Y:10 P:26 SP:D5
8EDA  8D 06 20 STA STA $2006                    A:00 X:00 Y:10 P:26 SP:D5

<L008>  occurrences: 106  block_size:3  repeated_instances:2
sample block:
8E92  8D 06 20 STA STA $2006                    A:22 X:00 Y:00 P:24 SP:D5
8E95  C8       INY                              A:22 X:00 Y:00 P:24 SP:D5
8E96  B1 00    LDA LDA ($00),Y                  A:22 X:00 Y:01 P:24 SP:D5

<L003>  occurrences: 238  block_size:12  repeated_instances:9
sample block:
8EA0  AD 78 07 LDA LDA $0778                    A:1A X:00 Y:02 P:24 SP:D4
8EA3  09 04    ORA ORA #$04                     A:10 X:00 Y:02 P:24 SP:D4
8EA5  B0 02    BCS BCS #$02                     A:14 X:00 Y:02 P:24 SP:D4
8EA7  29 FB    AND AND #$FB                     A:14 X:00 Y:02 P:24 SP:D4
8EA9  20 ED 8E JSR JSR $8EED                    A:10 X:00 Y:02 P:24 SP:D4
8EED  8D 00 20 STA STA $2000                    A:10 X:00 Y:02 P:24 SP:D2
8EF0  8D 78 07 STA STA $0778                    A:10 X:00 Y:02 P:24 SP:D2
8EF3  60       RTS                              A:10 X:00 Y:02 P:24 SP:D2
8EAC  68       PLA                              A:10 X:00 Y:02 P:24 SP:D4
8EAD  0A       ASL A                            A:1A X:00 Y:02 P:24 SP:D5
8EAE  90 03    BCC BCC #$03                     A:34 X:00 Y:02 P:24 SP:D5
8EB3  4A       LSR A                            A:34 X:00 Y:02 P:24 SP:D5

<L008>  occurrences: 106  block_size:3  repeated_instances:2
sample block:
8E92  8D 06 20 STA STA $2006                    A:22 X:00 Y:00 P:24 SP:D5
8E95  C8       INY                              A:22 X:00 Y:00 P:24 SP:D5
8E96  B1 00    LDA LDA ($00),Y                  A:22 X:00 Y:01 P:24 SP:D5

<L003>  occurrences: 238  block_size:12  repeated_instances:9
sample block:
8EA0  AD 78 07 LDA LDA $0778                    A:1A X:00 Y:02 P:24 SP:D4
8EA3  09 04    ORA ORA #$04                     A:10 X:00 Y:02 P:24 SP:D4
8EA5  B0 02    BCS BCS #$02                     A:14 X:00 Y:02 P:24 SP:D4
8EA7  29 FB    AND AND #$FB                     A:14 X:00 Y:02 P:24 SP:D4
8EA9  20 ED 8E JSR JSR $8EED                    A:10 X:00 Y:02 P:24 SP:D4
8EED  8D 00 20 STA STA $2000                    A:10 X:00 Y:02 P:24 SP:D2
8EF0  8D 78 07 STA STA $0778                    A:10 X:00 Y:02 P:24 SP:D2
8EF3  60       RTS                              A:10 X:00 Y:02 P:24 SP:D2
8EAC  68       PLA                              A:10 X:00 Y:02 P:24 SP:D4
8EAD  0A       ASL A                            A:1A X:00 Y:02 P:24 SP:D5
8EAE  90 03    BCC BCC #$03                     A:34 X:00 Y:02 P:24 SP:D5
8EB3  4A       LSR A                            A:34 X:00 Y:02 P:24 SP:D5

<L008>  occurrences: 106  block_size:3  repeated_instances:2
sample block:
8E92  8D 06 20 STA STA $2006                    A:22 X:00 Y:00 P:24 SP:D5
8E95  C8       INY                              A:22 X:00 Y:00 P:24 SP:D5
8E96  B1 00    LDA LDA ($00),Y                  A:22 X:00 Y:01 P:24 SP:D5

<L003>  occurrences: 238  block_size:12  repeated_instances:4
sample block:
8EA0  AD 78 07 LDA LDA $0778                    A:08 X:00 Y:02 P:24 SP:D4
8EA3  09 04    ORA ORA #$04                     A:10 X:00 Y:02 P:24 SP:D4
8EA5  B0 02    BCS BCS #$02                     A:14 X:00 Y:02 P:24 SP:D4
8EA7  29 FB    AND AND #$FB                     A:14 X:00 Y:02 P:24 SP:D4
8EA9  20 ED 8E JSR JSR $8EED                    A:10 X:00 Y:02 P:24 SP:D4
8EED  8D 00 20 STA STA $2000                    A:10 X:00 Y:02 P:24 SP:D2
8EF0  8D 78 07 STA STA $0778                    A:10 X:00 Y:02 P:24 SP:D2
8EF3  60       RTS                              A:10 X:00 Y:02 P:24 SP:D2
8EAC  68       PLA                              A:10 X:00 Y:02 P:24 SP:D4
8EAD  0A       ASL A                            A:08 X:00 Y:02 P:24 SP:D5
8EAE  90 03    BCC BCC #$03                     A:10 X:00 Y:02 P:24 SP:D5
8EB3  4A       LSR A                            A:10 X:00 Y:02 P:24 SP:D5

<L005>  occurrences: 138  block_size:3  repeated_instances:2
sample block:
8ED4  8D 06 20 STA STA $2006                    A:00 X:00 Y:06 P:26 SP:D5
8ED7  8D 06 20 STA STA $2006                    A:00 X:00 Y:06 P:26 SP:D5
8EDA  8D 06 20 STA STA $2006                    A:00 X:00 Y:06 P:26 SP:D5

<L008>  occurrences: 106  block_size:3  repeated_instances:2
sample block:
8E92  8D 06 20 STA STA $2006                    A:22 X:00 Y:00 P:24 SP:D5
8E95  C8       INY                              A:22 X:00 Y:00 P:24 SP:D5
8E96  B1 00    LDA LDA ($00),Y                  A:22 X:00 Y:01 P:24 SP:D5

<L003>  occurrences: 238  block_size:12  repeated_instances:3
sample block:
8EA0  AD 78 07 LDA LDA $0778                    A:02 X:00 Y:02 P:24 SP:D4
8EA3  09 04    ORA ORA #$04                     A:10 X:00 Y:02 P:24 SP:D4
8EA5  B0 02    BCS BCS #$02                     A:14 X:00 Y:02 P:24 SP:D4
8EA7  29 FB    AND AND #$FB                     A:14 X:00 Y:02 P:24 SP:D4
8EA9  20 ED 8E JSR JSR $8EED                    A:10 X:00 Y:02 P:24 SP:D4
8EED  8D 00 20 STA STA $2000                    A:10 X:00 Y:02 P:24 SP:D2
8EF0  8D 78 07 STA STA $0778                    A:10 X:00 Y:02 P:24 SP:D2
8EF3  60       RTS                              A:10 X:00 Y:02 P:24 SP:D2
8EAC  68       PLA                              A:10 X:00 Y:02 P:24 SP:D4
8EAD  0A       ASL A                            A:02 X:00 Y:02 P:24 SP:D5
8EAE  90 03    BCC BCC #$03                     A:04 X:00 Y:02 P:24 SP:D5
8EB3  4A       LSR A                            A:04 X:00 Y:02 P:24 SP:D5

<L008>  occurrences: 106  block_size:3  repeated_instances:2
sample block:
8E92  8D 06 20 STA STA $2006                    A:23 X:00 Y:00 P:24 SP:D5
8E95  C8       INY                              A:23 X:00 Y:00 P:24 SP:D5
8E96  B1 00    LDA LDA ($00),Y                  A:23 X:00 Y:01 P:24 SP:D5

<L031>  occurrences: 22  block_size:8  repeated_instances:2
sample block:
8EA0  AD 78 07 LDA LDA $0778                    A:AC X:00 Y:02 P:A4 SP:D4
8EA3  09 04    ORA ORA #$04                     A:10 X:00 Y:02 P:24 SP:D4
8EA5  B0 02    BCS BCS #$02                     A:14 X:00 Y:02 P:24 SP:D4
8EA7  29 FB    AND AND #$FB                     A:14 X:00 Y:02 P:24 SP:D4
8EA9  20 ED 8E JSR JSR $8EED                    A:10 X:00 Y:02 P:24 SP:D4
8EED  8D 00 20 STA STA $2000                    A:10 X:00 Y:02 P:24 SP:D2
8EF0  8D 78 07 STA STA $0778                    A:10 X:00 Y:02 P:24 SP:D2
8EF3  60       RTS                              A:10 X:00 Y:02 P:24 SP:D2

<L003>  occurrences: 238  block_size:12  repeated_instances:2
sample block:
8EB6  B0 01    BCS BCS #$01                     A:16 X:16 Y:03 P:25 SP:D5
8EB9  B1 00    LDA LDA ($00),Y                  A:16 X:16 Y:03 P:25 SP:D5
8EBB  8D 07 20 STA STA $2007                    A:55 X:16 Y:03 P:25 SP:D5
8EBE  CA       DEX                              A:55 X:16 Y:03 P:25 SP:D5
8EBF  D0 F5    BNE BNE #$F5                     A:55 X:15 Y:03 P:25 SP:D5
8EB6  B0 01    BCS BCS #$01                     A:55 X:15 Y:03 P:25 SP:D5
8EB9  B1 00    LDA LDA ($00),Y                  A:55 X:15 Y:03 P:25 SP:D5
8EBB  8D 07 20 STA STA $2007                    A:55 X:15 Y:03 P:25 SP:D5
8EBE  CA       DEX                              A:55 X:15 Y:03 P:25 SP:D5
8EBF  D0 F5    BNE BNE #$F5                     A:55 X:14 Y:03 P:25 SP:D5
8EC1  38       SEC                              A:55 X:00 Y:03 P:27 SP:D5
8EC2  98       TYA                              A:55 X:00 Y:03 P:27 SP:D5

<L001>  occurrences: 791  block_size:1  repeated_instances:3
sample block:
8EE0  A0 00    LDY LDY #$00                     A:00 X:00 Y:03 P:26 SP:D5

<L008>  occurrences: 106  block_size:3  repeated_instances:2
sample block:
8E92  8D 06 20 STA STA $2006                    A:23 X:00 Y:00 P:24 SP:D5
8E95  C8       INY                              A:23 X:00 Y:00 P:24 SP:D5
8E96  B1 00    LDA LDA ($00),Y                  A:23 X:00 Y:01 P:24 SP:D5

<L032>  occurrences: 22  block_size:11  repeated_instances:2
sample block:
8EA0  AD 78 07 LDA LDA $0778                    A:08 X:00 Y:02 P:24 SP:D4
8EA3  09 04    ORA ORA #$04                     A:10 X:00 Y:02 P:24 SP:D4
8EA5  B0 02    BCS BCS #$02                     A:14 X:00 Y:02 P:24 SP:D4
8EA7  29 FB    AND AND #$FB                     A:14 X:00 Y:02 P:24 SP:D4
8EA9  20 ED 8E JSR JSR $8EED                    A:10 X:00 Y:02 P:24 SP:D4
8EED  8D 00 20 STA STA $2000                    A:10 X:00 Y:02 P:24 SP:D2
8EF0  8D 78 07 STA STA $0778                    A:10 X:00 Y:02 P:24 SP:D2
8EF3  60       RTS                              A:10 X:00 Y:02 P:24 SP:D2
8EAC  68       PLA                              A:10 X:00 Y:02 P:24 SP:D4
8EAD  0A       ASL A                            A:08 X:00 Y:02 P:24 SP:D5
8EAE  90 03    BCC BCC #$03                     A:10 X:00 Y:02 P:24 SP:D5

<L003>  occurrences: 238  block_size:12  repeated_instances:2
sample block:
8EB9  B1 00    LDA LDA ($00),Y                  A:99 X:03 Y:04 P:24 SP:D5
8EBB  8D 07 20 STA STA $2007                    A:AA X:03 Y:04 P:A4 SP:D5
8EBE  CA       DEX                              A:AA X:03 Y:04 P:A4 SP:D5
8EBF  D0 F5    BNE BNE #$F5                     A:AA X:02 Y:04 P:24 SP:D5
8EB6  B0 01    BCS BCS #$01                     A:AA X:02 Y:04 P:24 SP:D5
8EB8  C8       INY                              A:AA X:02 Y:04 P:24 SP:D5
8EB9  B1 00    LDA LDA ($00),Y                  A:AA X:01 Y:06 P:24 SP:D5
8EBB  8D 07 20 STA STA $2007                    A:AA X:01 Y:06 P:A4 SP:D5
8EBE  CA       DEX                              A:AA X:01 Y:06 P:A4 SP:D5
8EBF  D0 F5    BNE BNE #$F5                     A:AA X:00 Y:06 P:26 SP:D5
8EC1  38       SEC                              A:AA X:00 Y:06 P:26 SP:D5
8EC2  98       TYA                              A:AA X:00 Y:06 P:27 SP:D5

<L001>  occurrences: 791  block_size:1  repeated_instances:3
sample block:
8EE0  A0 00    LDY LDY #$00                     A:00 X:00 Y:06 P:26 SP:D5

<L008>  occurrences: 106  block_size:3  repeated_instances:2
sample block:
8E92  8D 06 20 STA STA $2006                    A:23 X:00 Y:00 P:24 SP:D5
8E95  C8       INY                              A:23 X:00 Y:00 P:24 SP:D5
8E96  B1 00    LDA LDA ($00),Y                  A:23 X:00 Y:01 P:24 SP:D5

<L032>  occurrences: 22  block_size:11  repeated_instances:2
sample block:
8EA0  AD 78 07 LDA LDA $0778                    A:08 X:00 Y:02 P:24 SP:D4
8EA3  09 04    ORA ORA #$04                     A:10 X:00 Y:02 P:24 SP:D4
8EA5  B0 02    BCS BCS #$02                     A:14 X:00 Y:02 P:24 SP:D4
8EA7  29 FB    AND AND #$FB                     A:14 X:00 Y:02 P:24 SP:D4
8EA9  20 ED 8E JSR JSR $8EED                    A:10 X:00 Y:02 P:24 SP:D4
8EED  8D 00 20 STA STA $2000                    A:10 X:00 Y:02 P:24 SP:D2
8EF0  8D 78 07 STA STA $0778                    A:10 X:00 Y:02 P:24 SP:D2
8EF3  60       RTS                              A:10 X:00 Y:02 P:24 SP:D2
8EAC  68       PLA                              A:10 X:00 Y:02 P:24 SP:D4
8EAD  0A       ASL A                            A:08 X:00 Y:02 P:24 SP:D5
8EAE  90 03    BCC BCC #$03                     A:10 X:00 Y:02 P:24 SP:D5

<L003>  occurrences: 238  block_size:12  repeated_instances:2
sample block:
8EB9  B1 00    LDA LDA ($00),Y                  A:99 X:03 Y:04 P:24 SP:D5
8EBB  8D 07 20 STA STA $2007                    A:AA X:03 Y:04 P:A4 SP:D5
8EBE  CA       DEX                              A:AA X:03 Y:04 P:A4 SP:D5
8EBF  D0 F5    BNE BNE #$F5                     A:AA X:02 Y:04 P:24 SP:D5
8EB6  B0 01    BCS BCS #$01                     A:AA X:02 Y:04 P:24 SP:D5
8EB8  C8       INY                              A:AA X:02 Y:04 P:24 SP:D5
8EB9  B1 00    LDA LDA ($00),Y                  A:AA X:01 Y:06 P:24 SP:D5
8EBB  8D 07 20 STA STA $2007                    A:AA X:01 Y:06 P:A4 SP:D5
8EBE  CA       DEX                              A:AA X:01 Y:06 P:A4 SP:D5
8EBF  D0 F5    BNE BNE #$F5                     A:AA X:00 Y:06 P:26 SP:D5
8EC1  38       SEC                              A:AA X:00 Y:06 P:26 SP:D5
8EC2  98       TYA                              A:AA X:00 Y:06 P:27 SP:D5

<L005>  occurrences: 138  block_size:3  repeated_instances:2
sample block:
8EE0  A0 00    LDY LDY #$00                     A:00 X:00 Y:06 P:26 SP:D5
8EE2  B1 00    LDA LDA ($00),Y                  A:00 X:00 Y:00 P:26 SP:D5
8EE4  D0 AC    BNE BNE #$AC                     A:00 X:00 Y:00 P:26 SP:D5

<L001>  occurrences: 791  block_size:1  repeated_instances:2
sample block:
80CB  E0 06    CPX CPX #$06                     A:00 X:05 Y:00 P:24 SP:D7

<L022>  occurrences: 34  block_size:1  repeated_instances:2
sample block:
80D5  9D 00 03 STA STA $0300,X                  A:00 X:00 Y:00 P:26 SP:D7

<L001>  occurrences: 791  block_size:1  repeated_instances:2
sample block:
80DB  8D 73 07 STA STA $0773                    A:00 X:00 Y:00 P:26 SP:D7

<L010>  occurrences: 80  block_size:6  repeated_instances:2
sample block:
8FA1  BD DD 07 LDA LDA $07DD,X                  A:00 X:05 Y:05 P:25 SP:D3
8FA4  F9 D7 07 SBC SBC $07D7,Y                  A:00 X:05 Y:05 P:27 SP:D3
8FA7  CA       DEX                              A:00 X:05 Y:05 P:27 SP:D3
8FA8  88       DEY                              A:00 X:04 Y:05 P:25 SP:D3
8FA9  10 F6    BPL BPL #$F6                     A:00 X:04 Y:04 P:25 SP:D3
8FA1  BD DD 07 LDA LDA $07DD,X                  A:00 X:04 Y:04 P:25 SP:D3

<L005>  occurrences: 138  block_size:3  repeated_instances:2
sample block:
8FAF  BD DD 07 LDA LDA $07DD,X                  A:00 X:00 Y:00 P:27 SP:D3
8FB2  99 D7 07 STA STA $07D7,Y                  A:00 X:00 Y:00 P:27 SP:D3
8FB5  E8       INX                              A:00 X:00 Y:00 P:27 SP:D3

<L010>  occurrences: 80  block_size:6  repeated_instances:2
sample block:
8FA1  BD DD 07 LDA LDA $07DD,X                  A:00 X:0B Y:05 P:25 SP:D5
8FA4  F9 D7 07 SBC SBC $07D7,Y                  A:00 X:0B Y:05 P:27 SP:D5
8FA7  CA       DEX                              A:00 X:0B Y:05 P:27 SP:D5
8FA8  88       DEY                              A:00 X:0A Y:05 P:25 SP:D5
8FA9  10 F6    BPL BPL #$F6                     A:00 X:0A Y:04 P:25 SP:D5
8FA1  BD DD 07 LDA LDA $07DD,X                  A:00 X:0A Y:04 P:25 SP:D5

<L005>  occurrences: 138  block_size:3  repeated_instances:2
sample block:
8FAF  BD DD 07 LDA LDA $07DD,X                  A:00 X:06 Y:00 P:27 SP:D5
8FB2  99 D7 07 STA STA $07D7,Y                  A:00 X:06 Y:00 P:27 SP:D5
8FB5  E8       INX                              A:00 X:06 Y:00 P:27 SP:D5

<L016>  occurrences: 50  block_size:4  repeated_instances:3
sample block:
810E  BD 80 07 LDA LDA $0780,X                  A:00 X:14 Y:06 P:24 SP:D7
8111  F0 03    BEQ BEQ #$03                     A:00 X:14 Y:06 P:26 SP:D7
8116  CA       DEX                              A:00 X:14 Y:06 P:26 SP:D7
8117  10 F5    BPL BPL #$F5                     A:00 X:13 Y:06 P:24 SP:D7

<L015>  occurrences: 51  block_size:4  repeated_instances:3
sample block:
8131  7E A7 07 ROR ROR $07A7,X                  A:02 X:00 Y:07 P:25 SP:D7
8134  E8       INX                              A:02 X:00 Y:07 P:A5 SP:D7
8135  88       DEY                              A:02 X:01 Y:07 P:25 SP:D7
8136  D0 F9    BNE BNE #$F9                     A:02 X:01 Y:06 P:25 SP:D7

<L023>  occurrences: 34  block_size:2  repeated_instances:2
sample block:
815C  AD 3F 07 LDA LDA $073F                    A:00 X:07 Y:00 P:26 SP:D7
815F  8D 05 20 STA STA $2005                    A:00 X:07 Y:00 P:26 SP:D7

<L006>  occurrences: 114  block_size:2  repeated_instances:2
sample block:
8E06  68       PLA                              A:00 X:07 Y:00 P:26 SP:D2
8E07  85 04    STA STA $04                      A:17 X:07 Y:00 P:24 SP:D3

<L007>  occurrences: 114  block_size:3  repeated_instances:2
sample block:
8E0C  C8       INY                              A:82 X:07 Y:00 P:A4 SP:D4
8E0D  B1 04    LDA LDA ($04),Y                  A:82 X:07 Y:01 P:24 SP:D4
8E0F  85 06    STA STA $06                      A:31 X:07 Y:01 P:24 SP:D4

<L006>  occurrences: 114  block_size:2  repeated_instances:2
sample block:
8E06  68       PLA                              A:02 X:07 Y:02 P:24 SP:D2
8E07  85 04    STA STA $04                      A:36 X:07 Y:02 P:24 SP:D3

<L007>  occurrences: 114  block_size:3  repeated_instances:2
sample block:
8E0C  C8       INY                              A:82 X:07 Y:02 P:A4 SP:D4
8E0D  B1 04    LDA LDA ($04),Y                  A:82 X:07 Y:03 P:24 SP:D4
8E0F  85 06    STA STA $06                      A:67 X:07 Y:03 P:24 SP:D4

<L006>  occurrences: 114  block_size:2  repeated_instances:2
sample block:
8E06  68       PLA                              A:1A X:07 Y:1A P:24 SP:D2
8E07  85 04    STA STA $04                      A:6C X:07 Y:1A P:24 SP:D3

<L007>  occurrences: 114  block_size:3  repeated_instances:2
sample block:
8E0C  C8       INY                              A:85 X:07 Y:1A P:A4 SP:D4
8E0D  B1 04    LDA LDA ($04),Y                  A:85 X:07 Y:1B P:24 SP:D4
8E0F  85 06    STA STA $06                      A:32 X:07 Y:1B P:24 SP:D4

<L072>  occurrences: 2  block_size:4  repeated_instances:2
sample block:
8739  9D 00 03 STA STA $0300,X                  A:00 X:00 Y:1C P:26 SP:D4
873C  9D 00 04 STA STA $0400,X                  A:00 X:00 Y:1C P:26 SP:D4
873F  CA       DEX                              A:00 X:00 Y:1C P:26 SP:D4
8740  D0 F7    BNE BNE #$F7                     A:00 X:FF Y:1C P:A4 SP:D4

<L073>  occurrences: 2  block_size:12  repeated_instances:2
sample block:
832E  10 F7    BPL BPL #$F7                     A:00 X:00 Y:06 P:24 SP:D2
8327  B9 1D 83 LDA LDA $831D,Y                  A:00 X:00 Y:06 P:24 SP:D2
832A  99 00 03 STA STA $0300,Y                  A:24 X:00 Y:06 P:24 SP:D2
832D  88       DEY                              A:24 X:00 Y:06 P:24 SP:D2
832E  10 F7    BPL BPL #$F7                     A:24 X:00 Y:04 P:24 SP:D2
8327  B9 1D 83 LDA LDA $831D,Y                  A:24 X:00 Y:04 P:24 SP:D2
832A  99 00 03 STA STA $0300,Y                  A:CE X:00 Y:04 P:A4 SP:D2
832D  88       DEY                              A:CE X:00 Y:04 P:A4 SP:D2
832E  10 F7    BPL BPL #$F7                     A:CE X:00 Y:03 P:24 SP:D2
8327  B9 1D 83 LDA LDA $831D,Y                  A:CE X:00 Y:03 P:24 SP:D2
832A  99 00 03 STA STA $0300,Y                  A:83 X:00 Y:03 P:A4 SP:D2
832D  88       DEY                              A:83 X:00 Y:03 P:A4 SP:D2

<L005>  occurrences: 138  block_size:3  repeated_instances:2
sample block:
FFFA  82 80    *NOP *NOP #$80                   A:90 X:00 Y:FF P:26 SP:DA
FFFC  00       BRK                              A:90 X:00 Y:FF P:26 SP:DA
FFF0  19 19 1A ORA ORA $1A19,Y                  A:90 X:00 Y:FF P:26 SP:D7

<L011>  occurrences: 64  block_size:2  repeated_instances:2
sample block:
8085  29 7F    AND AND #$7F                     A:10 X:00 Y:FF P:24 SP:77
8087  8D 78 07 STA STA $0778                    A:10 X:00 Y:FF P:24 SP:77

<L011>  occurrences: 64  block_size:2  repeated_instances:2
sample block:
8097  D0 05    BNE BNE #$05                     A:00 X:00 Y:02 P:24 SP:77
809E  8D 79 07 STA STA $0779                    A:00 X:00 Y:02 P:24 SP:77

<L002>  occurrences: 396  block_size:2  repeated_instances:2
sample block:
80AB  20 E6 8E JSR JSR $8EE6                    A:00 X:80 Y:02 P:26 SP:77
8EE6  8D 05 20 STA STA $2005                    A:00 X:80 Y:02 P:26 SP:75

<L001>  occurrences: 791  block_size:1  repeated_instances:2
sample block:
80BC  85 00    STA STA $00                      A:01 X:00 Y:02 P:24 SP:77

<L002>  occurrences: 396  block_size:2  repeated_instances:2
sample block:
8EDD  AE 02 20 LDX LDX $2002                    A:03 X:00 Y:02 P:24 SP:75
8EE0  A0 00    LDY LDY #$00                     A:03 X:00 Y:02 P:26 SP:75

<L008>  occurrences: 106  block_size:3  repeated_instances:2
sample block:
8E92  8D 06 20 STA STA $2006                    A:22 X:00 Y:00 P:24 SP:75
8E95  C8       INY                              A:22 X:00 Y:00 P:24 SP:75
8E96  B1 00    LDA LDA ($00),Y                  A:22 X:00 Y:01 P:24 SP:75

<L003>  occurrences: 238  block_size:12  repeated_instances:4
sample block:
8EA0  AD 78 07 LDA LDA $0778                    A:06 X:00 Y:02 P:25 SP:74
8EA3  09 04    ORA ORA #$04                     A:10 X:00 Y:02 P:25 SP:74
8EA5  B0 02    BCS BCS #$02                     A:14 X:00 Y:02 P:25 SP:74
8EA9  20 ED 8E JSR JSR $8EED                    A:14 X:00 Y:02 P:25 SP:74
8EED  8D 00 20 STA STA $2000                    A:14 X:00 Y:02 P:25 SP:72
8EF0  8D 78 07 STA STA $0778                    A:14 X:00 Y:02 P:25 SP:72
8EF3  60       RTS                              A:14 X:00 Y:02 P:25 SP:72
8EAC  68       PLA                              A:14 X:00 Y:02 P:25 SP:74
8EAD  0A       ASL A                            A:06 X:00 Y:02 P:25 SP:75
8EAE  90 03    BCC BCC #$03                     A:0C X:00 Y:02 P:24 SP:75
8EB3  4A       LSR A                            A:0C X:00 Y:02 P:24 SP:75
8EB4  4A       LSR A                            A:06 X:00 Y:02 P:24 SP:75

<L001>  occurrences: 791  block_size:1  repeated_instances:3
sample block:
8EE6  8D 05 20 STA STA $2005                    A:00 X:00 Y:00 P:26 SP:75

<L001>  occurrences: 791  block_size:1  repeated_instances:2
sample block:
80CB  E0 06    CPX CPX #$06                     A:00 X:00 Y:00 P:26 SP:77

<L022>  occurrences: 34  block_size:1  repeated_instances:2
sample block:
80D5  9D 00 03 STA STA $0300,X                  A:00 X:00 Y:00 P:26 SP:77

<L001>  occurrences: 791  block_size:1  repeated_instances:2
sample block:
80DB  8D 73 07 STA STA $0773                    A:00 X:00 Y:00 P:26 SP:77

<L010>  occurrences: 80  block_size:6  repeated_instances:2
sample block:
8FA1  BD DD 07 LDA LDA $07DD,X                  A:00 X:05 Y:05 P:25 SP:73
8FA4  F9 D7 07 SBC SBC $07D7,Y                  A:00 X:05 Y:05 P:27 SP:73
8FA7  CA       DEX                              A:00 X:05 Y:05 P:27 SP:73
8FA8  88       DEY                              A:00 X:04 Y:05 P:25 SP:73
8FA9  10 F6    BPL BPL #$F6                     A:00 X:04 Y:04 P:25 SP:73
8FA1  BD DD 07 LDA LDA $07DD,X                  A:00 X:04 Y:04 P:25 SP:73

<L005>  occurrences: 138  block_size:3  repeated_instances:2
sample block:
8FAF  BD DD 07 LDA LDA $07DD,X                  A:00 X:00 Y:00 P:27 SP:73
8FB2  99 D7 07 STA STA $07D7,Y                  A:00 X:00 Y:00 P:27 SP:73
8FB5  E8       INX                              A:00 X:00 Y:00 P:27 SP:73

<L010>  occurrences: 80  block_size:6  repeated_instances:2
sample block:
8FA1  BD DD 07 LDA LDA $07DD,X                  A:00 X:0B Y:05 P:25 SP:75
8FA4  F9 D7 07 SBC SBC $07D7,Y                  A:00 X:0B Y:05 P:27 SP:75
8FA7  CA       DEX                              A:00 X:0B Y:05 P:27 SP:75
8FA8  88       DEY                              A:00 X:0A Y:05 P:25 SP:75
8FA9  10 F6    BPL BPL #$F6                     A:00 X:0A Y:04 P:25 SP:75
8FA1  BD DD 07 LDA LDA $07DD,X                  A:00 X:0A Y:04 P:25 SP:75

<L005>  occurrences: 138  block_size:3  repeated_instances:2
sample block:
8FAF  BD DD 07 LDA LDA $07DD,X                  A:00 X:06 Y:00 P:27 SP:75
8FB2  99 D7 07 STA STA $07D7,Y                  A:00 X:06 Y:00 P:27 SP:75
8FB5  E8       INX                              A:00 X:06 Y:00 P:27 SP:75

<L016>  occurrences: 50  block_size:4  repeated_instances:3
sample block:
810E  BD 80 07 LDA LDA $0780,X                  A:00 X:14 Y:06 P:24 SP:77
8111  F0 03    BEQ BEQ #$03                     A:00 X:14 Y:06 P:26 SP:77
8116  CA       DEX                              A:00 X:14 Y:06 P:26 SP:77
8117  10 F5    BPL BPL #$F5                     A:00 X:13 Y:06 P:24 SP:77

<L015>  occurrences: 51  block_size:4  repeated_instances:3
sample block:
8131  7E A7 07 ROR ROR $07A7,X                  A:02 X:00 Y:07 P:25 SP:77
8134  E8       INX                              A:02 X:00 Y:07 P:A4 SP:77
8135  88       DEY                              A:02 X:01 Y:07 P:24 SP:77
8136  D0 F9    BNE BNE #$F9                     A:02 X:01 Y:06 P:24 SP:77

<L023>  occurrences: 34  block_size:2  repeated_instances:2
sample block:
815C  AD 3F 07 LDA LDA $073F                    A:00 X:07 Y:00 P:26 SP:77
815F  8D 05 20 STA STA $2005                    A:00 X:07 Y:00 P:26 SP:77

<L006>  occurrences: 114  block_size:2  repeated_instances:2
sample block:
8E06  68       PLA                              A:00 X:07 Y:00 P:26 SP:72
8E07  85 04    STA STA $04                      A:17 X:07 Y:00 P:24 SP:73

<L007>  occurrences: 114  block_size:3  repeated_instances:2
sample block:
8E0C  C8       INY                              A:82 X:07 Y:00 P:A4 SP:74
8E0D  B1 04    LDA LDA ($04),Y                  A:82 X:07 Y:01 P:24 SP:74
8E0F  85 06    STA STA $06                      A:31 X:07 Y:01 P:24 SP:74

<L006>  occurrences: 114  block_size:2  repeated_instances:2
sample block:
8E06  68       PLA                              A:02 X:07 Y:02 P:24 SP:72
8E07  85 04    STA STA $04                      A:36 X:07 Y:02 P:24 SP:73

<L007>  occurrences: 114  block_size:3  repeated_instances:2
sample block:
8E0C  C8       INY                              A:82 X:07 Y:02 P:A4 SP:74
8E0D  B1 04    LDA LDA ($04),Y                  A:82 X:07 Y:03 P:24 SP:74
8E0F  85 06    STA STA $06                      A:67 X:07 Y:03 P:24 SP:74

<L006>  occurrences: 114  block_size:2  repeated_instances:2
sample block:
8E06  68       PLA                              A:1C X:07 Y:1C P:24 SP:72
8E07  85 04    STA STA $04                      A:6C X:07 Y:1C P:24 SP:73

<L007>  occurrences: 114  block_size:3  repeated_instances:2
sample block:
8E0C  C8       INY                              A:85 X:07 Y:1C P:A4 SP:74
8E0D  B1 04    LDA LDA ($04),Y                  A:85 X:07 Y:1D P:24 SP:74
8E0F  85 06    STA STA $06                      A:49 X:07 Y:1D P:24 SP:74

<L024>  occurrences: 34  block_size:1  repeated_instances:2
sample block:
8F0D  4A       LSR A                            A:FA X:07 Y:1E P:A5 SP:70

<L054>  occurrences: 6  block_size:2  repeated_instances:2
sample block:
8F28  9D 01 03 STA STA $0301,X                  A:22 X:00 Y:00 P:25 SP:6F
8F2B  B9 F4 8E LDA LDA $8EF4,Y                  A:22 X:00 Y:00 P:25 SP:6F

<L028>  occurrences: 25  block_size:1  repeated_instances:3
sample block:
8F58  E8       INX                              A:00 X:06 Y:06 P:27 SP:70

<L005>  occurrences: 138  block_size:3  repeated_instances:2
sample block:
BC39  AC 00 03 LDY LDY $0300                    A:00 X:09 Y:06 P:25 SP:72
BC3C  B9 FB 02 LDA LDA $02FB,Y                  A:00 X:09 Y:09 P:25 SP:72
BC3F  D0 05    BNE BNE #$05                     A:00 X:09 Y:09 P:27 SP:72

<L026>  occurrences: 30  block_size:5  repeated_instances:2
sample block:
FFFA  82 80    *NOP *NOP #$80                   A:94 X:00 Y:09 P:26 SP:7A
FFFC  00       BRK                              A:94 X:00 Y:09 P:26 SP:7A
FFF0  19 19 1A ORA ORA $1A19,Y                  A:94 X:00 Y:09 P:26 SP:77
FFF3  1A       *NOP                             A:94 X:00 Y:09 P:A4 SP:77
FFF4  1C 1D 1D *NOP *NOP $1D1D,X                A:94 X:00 Y:09 P:A4 SP:77

<L011>  occurrences: 64  block_size:2  repeated_instances:2
sample block:
8085  29 7F    AND AND #$7F                     A:14 X:00 Y:09 P:24 SP:1D
8087  8D 78 07 STA STA $0778                    A:14 X:00 Y:09 P:24 SP:1D

<L011>  occurrences: 64  block_size:2  repeated_instances:2
sample block:
8097  D0 05    BNE BNE #$05                     A:00 X:00 Y:02 P:24 SP:1D
809E  8D 79 07 STA STA $0779                    A:00 X:00 Y:02 P:24 SP:1D

<L002>  occurrences: 396  block_size:2  repeated_instances:2
sample block:
80AB  20 E6 8E JSR JSR $8EE6                    A:00 X:80 Y:02 P:26 SP:1D
8EE6  8D 05 20 STA STA $2005                    A:00 X:80 Y:02 P:26 SP:1B

<L001>  occurrences: 791  block_size:1  repeated_instances:2
sample block:
80BC  85 00    STA STA $00                      A:01 X:00 Y:02 P:24 SP:1D

<L002>  occurrences: 396  block_size:2  repeated_instances:2
sample block:
8EDD  AE 02 20 LDX LDX $2002                    A:03 X:00 Y:02 P:24 SP:1B
8EE0  A0 00    LDY LDY #$00                     A:03 X:00 Y:02 P:26 SP:1B

<L008>  occurrences: 106  block_size:3  repeated_instances:2
sample block:
8E92  8D 06 20 STA STA $2006                    A:22 X:00 Y:00 P:24 SP:1B
8E95  C8       INY                              A:22 X:00 Y:00 P:24 SP:1B
8E96  B1 00    LDA LDA ($00),Y                  A:22 X:00 Y:01 P:24 SP:1B

<L032>  occurrences: 22  block_size:11  repeated_instances:2
sample block:
8EA0  AD 78 07 LDA LDA $0778                    A:0C X:00 Y:02 P:24 SP:1A
8EA3  09 04    ORA ORA #$04                     A:14 X:00 Y:02 P:24 SP:1A
8EA5  B0 02    BCS BCS #$02                     A:14 X:00 Y:02 P:24 SP:1A
8EA7  29 FB    AND AND #$FB                     A:14 X:00 Y:02 P:24 SP:1A
8EA9  20 ED 8E JSR JSR $8EED                    A:10 X:00 Y:02 P:24 SP:1A
8EED  8D 00 20 STA STA $2000                    A:10 X:00 Y:02 P:24 SP:18
8EF0  8D 78 07 STA STA $0778                    A:10 X:00 Y:02 P:24 SP:18
8EF3  60       RTS                              A:10 X:00 Y:02 P:24 SP:18
8EAC  68       PLA                              A:10 X:00 Y:02 P:24 SP:1A
8EAD  0A       ASL A                            A:0C X:00 Y:02 P:24 SP:1B
8EAE  90 03    BCC BCC #$03                     A:18 X:00 Y:02 P:24 SP:1B

<L003>  occurrences: 238  block_size:12  repeated_instances:2
sample block:
8EB9  B1 00    LDA LDA ($00),Y                  A:24 X:05 Y:04 P:24 SP:1B
8EBB  8D 07 20 STA STA $2007                    A:00 X:05 Y:04 P:26 SP:1B
8EBE  CA       DEX                              A:00 X:05 Y:04 P:26 SP:1B
8EBF  D0 F5    BNE BNE #$F5                     A:00 X:04 Y:04 P:24 SP:1B
8EB6  B0 01    BCS BCS #$01                     A:00 X:04 Y:04 P:24 SP:1B
8EB8  C8       INY                              A:00 X:04 Y:04 P:24 SP:1B
8EB9  B1 00    LDA LDA ($00),Y                  A:00 X:01 Y:08 P:24 SP:1B
8EBB  8D 07 20 STA STA $2007                    A:00 X:01 Y:08 P:26 SP:1B
8EBE  CA       DEX                              A:00 X:01 Y:08 P:26 SP:1B
8EBF  D0 F5    BNE BNE #$F5                     A:00 X:00 Y:08 P:26 SP:1B
8EC1  38       SEC                              A:00 X:00 Y:08 P:26 SP:1B
8EC2  98       TYA                              A:00 X:00 Y:08 P:27 SP:1B

<L005>  occurrences: 138  block_size:3  repeated_instances:2
sample block:
8EE0  A0 00    LDY LDY #$00                     A:00 X:00 Y:08 P:26 SP:1B
8EE2  B1 00    LDA LDA ($00),Y                  A:00 X:00 Y:00 P:26 SP:1B
8EE4  D0 AC    BNE BNE #$AC                     A:00 X:00 Y:00 P:26 SP:1B

<L001>  occurrences: 791  block_size:1  repeated_instances:2
sample block:
80CB  E0 06    CPX CPX #$06                     A:00 X:00 Y:00 P:26 SP:1D

<L022>  occurrences: 34  block_size:1  repeated_instances:2
sample block:
80D5  9D 00 03 STA STA $0300,X                  A:00 X:00 Y:00 P:26 SP:1D

<L001>  occurrences: 791  block_size:1  repeated_instances:2
sample block:
80DB  8D 73 07 STA STA $0773                    A:00 X:00 Y:00 P:26 SP:1D

<L010>  occurrences: 80  block_size:6  repeated_instances:2
sample block:
8FA1  BD DD 07 LDA LDA $07DD,X                  A:00 X:05 Y:05 P:25 SP:19
8FA4  F9 D7 07 SBC SBC $07D7,Y                  A:00 X:05 Y:05 P:27 SP:19
8FA7  CA       DEX                              A:00 X:05 Y:05 P:27 SP:19
8FA8  88       DEY                              A:00 X:04 Y:05 P:25 SP:19
8FA9  10 F6    BPL BPL #$F6                     A:00 X:04 Y:04 P:25 SP:19
8FA1  BD DD 07 LDA LDA $07DD,X                  A:00 X:04 Y:04 P:25 SP:19

<L005>  occurrences: 138  block_size:3  repeated_instances:2
sample block:
8FAF  BD DD 07 LDA LDA $07DD,X                  A:00 X:00 Y:00 P:27 SP:19
8FB2  99 D7 07 STA STA $07D7,Y                  A:00 X:00 Y:00 P:27 SP:19
8FB5  E8       INX                              A:00 X:00 Y:00 P:27 SP:19

<L010>  occurrences: 80  block_size:6  repeated_instances:2
sample block:
8FA1  BD DD 07 LDA LDA $07DD,X                  A:00 X:0B Y:05 P:25 SP:1B
8FA4  F9 D7 07 SBC SBC $07D7,Y                  A:00 X:0B Y:05 P:27 SP:1B
8FA7  CA       DEX                              A:00 X:0B Y:05 P:27 SP:1B
8FA8  88       DEY                              A:00 X:0A Y:05 P:25 SP:1B
8FA9  10 F6    BPL BPL #$F6                     A:00 X:0A Y:04 P:25 SP:1B
8FA1  BD DD 07 LDA LDA $07DD,X                  A:00 X:0A Y:04 P:25 SP:1B

<L005>  occurrences: 138  block_size:3  repeated_instances:2
sample block:
8FAF  BD DD 07 LDA LDA $07DD,X                  A:00 X:06 Y:00 P:27 SP:1B
8FB2  99 D7 07 STA STA $07D7,Y                  A:00 X:06 Y:00 P:27 SP:1B
8FB5  E8       INX                              A:00 X:06 Y:00 P:27 SP:1B

<L016>  occurrences: 50  block_size:4  repeated_instances:3
sample block:
810E  BD 80 07 LDA LDA $0780,X                  A:00 X:14 Y:06 P:24 SP:1D
8111  F0 03    BEQ BEQ #$03                     A:00 X:14 Y:06 P:26 SP:1D
8116  CA       DEX                              A:00 X:14 Y:06 P:26 SP:1D
8117  10 F5    BPL BPL #$F5                     A:00 X:13 Y:06 P:24 SP:1D

<L015>  occurrences: 51  block_size:4  repeated_instances:3
sample block:
8131  7E A7 07 ROR ROR $07A7,X                  A:00 X:00 Y:07 P:26 SP:1D
8134  E8       INX                              A:00 X:00 Y:07 P:25 SP:1D
8135  88       DEY                              A:00 X:01 Y:07 P:25 SP:1D
8136  D0 F9    BNE BNE #$F9                     A:00 X:01 Y:06 P:25 SP:1D

<L023>  occurrences: 34  block_size:2  repeated_instances:2
sample block:
815C  AD 3F 07 LDA LDA $073F                    A:00 X:07 Y:00 P:26 SP:1D
815F  8D 05 20 STA STA $2005                    A:00 X:07 Y:00 P:26 SP:1D

<L006>  occurrences: 114  block_size:2  repeated_instances:2
sample block:
8E06  68       PLA                              A:00 X:07 Y:00 P:26 SP:18
8E07  85 04    STA STA $04                      A:17 X:07 Y:00 P:24 SP:19

<L007>  occurrences: 114  block_size:3  repeated_instances:2
sample block:
8E0C  C8       INY                              A:82 X:07 Y:00 P:A4 SP:1A
8E0D  B1 04    LDA LDA ($04),Y                  A:82 X:07 Y:01 P:24 SP:1A
8E0F  85 06    STA STA $06                      A:31 X:07 Y:01 P:24 SP:1A

<L006>  occurrences: 114  block_size:2  repeated_instances:2
sample block:
8E06  68       PLA                              A:04 X:07 Y:04 P:24 SP:18
8E07  85 04    STA STA $04                      A:36 X:07 Y:04 P:24 SP:19

<L007>  occurrences: 114  block_size:3  repeated_instances:2
sample block:
8E0C  C8       INY                              A:82 X:07 Y:04 P:A4 SP:1A
8E0D  B1 04    LDA LDA ($04),Y                  A:82 X:07 Y:05 P:24 SP:1A
8E0F  85 06    STA STA $06                      A:61 X:07 Y:05 P:24 SP:1A

<L074>  occurrences: 2  block_size:3  repeated_instances:2
sample block:
9061  A9 01    LDA LDA #$01                     A:90 X:07 Y:06 P:A4 SP:1A
9063  8D 57 07 STA STA $0757                    A:01 X:07 Y:06 P:24 SP:1A
9066  8D 54 07 STA STA $0754                    A:01 X:07 Y:06 P:24 SP:1A

<L075>  occurrences: 2  block_size:6  repeated_instances:2
sample block:
9077  99 00 03 STA STA $0300,Y                  A:00 X:07 Y:00 P:26 SP:1A
907A  C8       INY                              A:00 X:07 Y:00 P:26 SP:1A
907B  D0 FA    BNE BNE #$FA                     A:00 X:07 Y:01 P:24 SP:1A
9077  99 00 03 STA STA $0300,Y                  A:00 X:07 Y:01 P:24 SP:1A
907A  C8       INY                              A:00 X:07 Y:01 P:24 SP:1A
907B  D0 FA    BNE BNE #$FA                     A:00 X:07 Y:02 P:24 SP:1A

<L027>  occurrences: 27  block_size:1  repeated_instances:3
sample block:
907D  8D 59 07 STA STA $0759                    A:00 X:07 Y:00 P:26 SP:1A

<L046>  occurrences: 9  block_size:2  repeated_instances:3
sample block:
909A  A9 38    LDA LDA #$38                     A:00 X:07 Y:00 P:26 SP:1A
909C  8D E3 06 STA STA $06E3                    A:38 X:07 Y:00 P:24 SP:1A

<L056>  occurrences: 5  block_size:12  repeated_instances:5
sample block:
90AB  BD BC 8F LDA LDA $8FBC,X                  A:58 X:0E Y:00 P:24 SP:1A
90AE  9D E4 06 STA STA $06E4,X                  A:2C X:0E Y:00 P:24 SP:1A
90B1  CA       DEX                              A:2C X:0E Y:00 P:24 SP:1A
90B2  10 F7    BPL BPL #$F7                     A:2C X:0D Y:00 P:24 SP:1A
90AB  BD BC 8F LDA LDA $8FBC,X                  A:2C X:0D Y:00 P:24 SP:1A
90AE  9D E4 06 STA STA $06E4,X                  A:28 X:0D Y:00 P:24 SP:1A
90B1  CA       DEX                              A:28 X:0D Y:00 P:24 SP:1A
90B2  10 F7    BPL BPL #$F7                     A:28 X:0C Y:00 P:24 SP:1A
90AB  BD BC 8F LDA LDA $8FBC,X                  A:28 X:0C Y:00 P:24 SP:1A
90AE  9D E4 06 STA STA $06E4,X                  A:FC X:0C Y:00 P:A4 SP:1A
90B1  CA       DEX                              A:FC X:0C Y:00 P:A4 SP:1A
90B2  10 F7    BPL BPL #$F7                     A:FC X:0B Y:00 P:24 SP:1A

<L076>  occurrences: 2  block_size:8  repeated_instances:2
sample block:
90B6  B9 CB 8F LDA LDA $8FCB,Y                  A:04 X:FF Y:03 P:24 SP:1A
90B9  99 00 02 STA STA $0200,Y                  A:58 X:FF Y:03 P:24 SP:1A
90BC  88       DEY                              A:58 X:FF Y:03 P:24 SP:1A
90BD  10 F7    BPL BPL #$F7                     A:58 X:FF Y:02 P:24 SP:1A
90B6  B9 CB 8F LDA LDA $8FCB,Y                  A:58 X:FF Y:02 P:24 SP:1A
90B9  99 00 02 STA STA $0200,Y                  A:23 X:FF Y:02 P:24 SP:1A
90BC  88       DEY                              A:23 X:FF Y:02 P:24 SP:1A
90BD  10 F7    BPL BPL #$F7                     A:23 X:FF Y:01 P:24 SP:1A

<L001>  occurrences: 791  block_size:1  repeated_instances:2
sample block:
90BF  20 AF 92 JSR JSR $92AF                    A:18 X:FF Y:FF P:A4 SP:1A

<L001>  occurrences: 791  block_size:1  repeated_instances:3
sample block:
92AA  A9 FF    LDA LDA #$FF                     A:18 X:FF Y:FF P:A4 SP:18

<L047>  occurrences: 9  block_size:1  repeated_instances:2
sample block:
90C5  EE 22 07 INC INC $0722                    A:FF X:FF Y:FF P:A4 SP:1A

<L005>  occurrences: 138  block_size:3  repeated_instances:2
sample block:
FFF7  1E 1E 1F ASL ASL $1F1E,X                  A:90 X:FF Y:FF P:A4 SP:20
FFFA  82 80    *NOP *NOP #$80                   A:90 X:FF Y:FF P:26 SP:20
FFFC  00       BRK                              A:90 X:FF Y:FF P:26 SP:20

<L011>  occurrences: 64  block_size:2  repeated_instances:2
sample block:
8085  29 7F    AND AND #$7F                     A:10 X:FF Y:FF P:24 SP:F8
8087  8D 78 07 STA STA $0778                    A:10 X:FF Y:FF P:24 SP:F8

<L002>  occurrences: 396  block_size:2  repeated_instances:2
sample block:
80AB  20 E6 8E JSR JSR $8EE6                    A:00 X:80 Y:00 P:26 SP:F8
8EE6  8D 05 20 STA STA $2005                    A:00 X:80 Y:00 P:26 SP:F6

<L001>  occurrences: 791  block_size:1  repeated_instances:2
sample block:
80BC  85 00    STA STA $00                      A:01 X:00 Y:00 P:24 SP:F8

<L005>  occurrences: 138  block_size:3  repeated_instances:2
sample block:
8EDD  AE 02 20 LDX LDX $2002                    A:03 X:00 Y:00 P:24 SP:F6
8EE0  A0 00    LDY LDY #$00                     A:03 X:00 Y:00 P:26 SP:F6
8EE2  B1 00    LDA LDA ($00),Y                  A:03 X:00 Y:00 P:26 SP:F6

<L001>  occurrences: 791  block_size:1  repeated_instances:2
sample block:
80CB  E0 06    CPX CPX #$06                     A:00 X:00 Y:00 P:26 SP:F8

<L022>  occurrences: 34  block_size:1  repeated_instances:2
sample block:
80D5  9D 00 03 STA STA $0300,X                  A:00 X:00 Y:00 P:26 SP:F8

<L001>  occurrences: 791  block_size:1  repeated_instances:2
sample block:
80DB  8D 73 07 STA STA $0773                    A:00 X:00 Y:00 P:26 SP:F8

<L010>  occurrences: 80  block_size:6  repeated_instances:2
sample block:
8FA1  BD DD 07 LDA LDA $07DD,X                  A:00 X:05 Y:05 P:25 SP:F4
8FA4  F9 D7 07 SBC SBC $07D7,Y                  A:00 X:05 Y:05 P:27 SP:F4
8FA7  CA       DEX                              A:00 X:05 Y:05 P:27 SP:F4
8FA8  88       DEY                              A:00 X:04 Y:05 P:25 SP:F4
8FA9  10 F6    BPL BPL #$F6                     A:00 X:04 Y:04 P:25 SP:F4
8FA1  BD DD 07 LDA LDA $07DD,X                  A:00 X:04 Y:04 P:25 SP:F4

<L005>  occurrences: 138  block_size:3  repeated_instances:2
sample block:
8FAF  BD DD 07 LDA LDA $07DD,X                  A:00 X:00 Y:00 P:27 SP:F4
8FB2  99 D7 07 STA STA $07D7,Y                  A:00 X:00 Y:00 P:27 SP:F4
8FB5  E8       INX                              A:00 X:00 Y:00 P:27 SP:F4

<L010>  occurrences: 80  block_size:6  repeated_instances:2
sample block:
8FA1  BD DD 07 LDA LDA $07DD,X                  A:00 X:0B Y:05 P:25 SP:F6
8FA4  F9 D7 07 SBC SBC $07D7,Y                  A:00 X:0B Y:05 P:27 SP:F6
8FA7  CA       DEX                              A:00 X:0B Y:05 P:27 SP:F6
8FA8  88       DEY                              A:00 X:0A Y:05 P:25 SP:F6
8FA9  10 F6    BPL BPL #$F6                     A:00 X:0A Y:04 P:25 SP:F6
8FA1  BD DD 07 LDA LDA $07DD,X                  A:00 X:0A Y:04 P:25 SP:F6

<L005>  occurrences: 138  block_size:3  repeated_instances:2
sample block:
8FAF  BD DD 07 LDA LDA $07DD,X                  A:00 X:06 Y:00 P:27 SP:F6
8FB2  99 D7 07 STA STA $07D7,Y                  A:00 X:06 Y:00 P:27 SP:F6
8FB5  E8       INX                              A:00 X:06 Y:00 P:27 SP:F6

<L016>  occurrences: 50  block_size:4  repeated_instances:3
sample block:
810E  BD 80 07 LDA LDA $0780,X                  A:00 X:14 Y:06 P:24 SP:F8
8111  F0 03    BEQ BEQ #$03                     A:00 X:14 Y:06 P:26 SP:F8
8116  CA       DEX                              A:00 X:14 Y:06 P:26 SP:F8
8117  10 F5    BPL BPL #$F5                     A:00 X:13 Y:06 P:24 SP:F8

<L015>  occurrences: 51  block_size:4  repeated_instances:3
sample block:
8131  7E A7 07 ROR ROR $07A7,X                  A:02 X:00 Y:07 P:25 SP:F8
8134  E8       INX                              A:02 X:00 Y:07 P:A5 SP:F8
8135  88       DEY                              A:02 X:01 Y:07 P:25 SP:F8
8136  D0 F9    BNE BNE #$F9                     A:02 X:01 Y:06 P:25 SP:F8

<L017>  occurrences: 50  block_size:1  repeated_instances:2
sample block:
8140  29 40    AND AND #$40                     A:00 X:07 Y:00 P:26 SP:F8

<L048>  occurrences: 8  block_size:2  repeated_instances:2
sample block:
822A  C8       INY                              A:F8 X:07 Y:04 P:A4 SP:F6
822B  C8       INY                              A:F8 X:07 Y:05 P:24 SP:F6

<L001>  occurrences: 791  block_size:1  repeated_instances:3
sample block:
81CB  85 00    STA STA $00                      A:28 X:07 Y:01 P:24 SP:F6

<L055>  occurrences: 6  block_size:10  repeated_instances:2
sample block:
81D2  C5 00    CMP CMP $00                      A:2C X:0E Y:01 P:24 SP:F6
81D4  90 0F    BCC BCC #$0F                     A:2C X:0E Y:01 P:25 SP:F6
81D6  AC E0 06 LDY LDY $06E0                    A:2C X:0E Y:01 P:25 SP:F6
81D9  18       CLC                              A:2C X:0E Y:00 P:27 SP:F6
81DA  79 E1 06 ADC ADC $06E1,Y                  A:2C X:0E Y:00 P:26 SP:F6
81DD  90 03    BCC BCC #$03                     A:84 X:0E Y:00 P:E4 SP:F6
81E2  9D E4 06 STA STA $06E4,X                  A:84 X:0E Y:00 P:E4 SP:F6
81E5  CA       DEX                              A:84 X:0E Y:00 P:E4 SP:F6
81E6  10 E7    BPL BPL #$E7                     A:84 X:0D Y:00 P:64 SP:F6
81CF  BD E4 06 LDA LDA $06E4,X                  A:84 X:0D Y:00 P:64 SP:F6

<L077>  occurrences: 2  block_size:12  repeated_instances:2
sample block:
81D2  C5 00    CMP CMP $00                      A:FC X:0C Y:00 P:E4 SP:F6
81D4  90 0F    BCC BCC #$0F                     A:FC X:0C Y:00 P:E5 SP:F6
81D6  AC E0 06 LDY LDY $06E0                    A:FC X:0C Y:00 P:E5 SP:F6
81D9  18       CLC                              A:FC X:0C Y:00 P:67 SP:F6
81DA  79 E1 06 ADC ADC $06E1,Y                  A:FC X:0C Y:00 P:66 SP:F6
81DD  90 03    BCC BCC #$03                     A:54 X:0C Y:00 P:25 SP:F6
81DF  18       CLC                              A:54 X:0C Y:00 P:25 SP:F6
81E0  65 00    ADC ADC $00                      A:54 X:0C Y:00 P:24 SP:F6
81E2  9D E4 06 STA STA $06E4,X                  A:7C X:0C Y:00 P:24 SP:F6
81E5  CA       DEX                              A:7C X:0C Y:00 P:24 SP:F6
81E6  10 E7    BPL BPL #$E7                     A:7C X:0B Y:00 P:24 SP:F6
81CF  BD E4 06 LDA LDA $06E4,X                  A:7C X:0B Y:00 P:24 SP:F6

<L051>  occurrences: 7  block_size:12  repeated_instances:4
sample block:
81E5  CA       DEX                              A:24 X:0A Y:00 P:A4 SP:F6
81E6  10 E7    BPL BPL #$E7                     A:24 X:09 Y:00 P:24 SP:F6
81CF  BD E4 06 LDA LDA $06E4,X                  A:24 X:09 Y:00 P:24 SP:F6
81D2  C5 00    CMP CMP $00                      A:E8 X:09 Y:00 P:A4 SP:F6
81D4  90 0F    BCC BCC #$0F                     A:E8 X:09 Y:00 P:A5 SP:F6
81D6  AC E0 06 LDY LDY $06E0                    A:E8 X:09 Y:00 P:A5 SP:F6
81D9  18       CLC                              A:E8 X:09 Y:00 P:27 SP:F6
81DA  79 E1 06 ADC ADC $06E1,Y                  A:E8 X:09 Y:00 P:26 SP:F6
81DD  90 03    BCC BCC #$03                     A:40 X:09 Y:00 P:25 SP:F6
81DF  18       CLC                              A:40 X:09 Y:00 P:25 SP:F6
81E0  65 00    ADC ADC $00                      A:40 X:09 Y:00 P:24 SP:F6
81E2  9D E4 06 STA STA $06E4,X                  A:68 X:09 Y:00 P:24 SP:F6

<L045>  occurrences: 11  block_size:10  repeated_instances:5
sample block:
81E5  CA       DEX                              A:28 X:06 Y:00 P:24 SP:F6
81E6  10 E7    BPL BPL #$E7                     A:28 X:05 Y:00 P:24 SP:F6
81CF  BD E4 06 LDA LDA $06E4,X                  A:28 X:05 Y:00 P:24 SP:F6
81D2  C5 00    CMP CMP $00                      A:90 X:05 Y:00 P:A4 SP:F6
81D4  90 0F    BCC BCC #$0F                     A:90 X:05 Y:00 P:25 SP:F6
81D6  AC E0 06 LDY LDY $06E0                    A:90 X:05 Y:00 P:25 SP:F6
81D9  18       CLC                              A:90 X:05 Y:00 P:27 SP:F6
81DA  79 E1 06 ADC ADC $06E1,Y                  A:90 X:05 Y:00 P:26 SP:F6
81DD  90 03    BCC BCC #$03                     A:E8 X:05 Y:00 P:A4 SP:F6
81E2  9D E4 06 STA STA $06E4,X                  A:E8 X:05 Y:00 P:A4 SP:F6

<L001>  occurrences: 791  block_size:1  repeated_instances:3
sample block:
81EB  E8       INX                              A:04 X:00 Y:00 P:66 SP:F6

<L001>  occurrences: 791  block_size:1  repeated_instances:2
sample block:
81FC  9D F1 06 STA STA $06F1,X                  A:40 X:08 Y:02 P:64 SP:F6

<L001>  occurrences: 791  block_size:1  repeated_instances:3
sample block:
820B  CA       DEX                              A:50 X:08 Y:02 P:24 SP:F6

<L001>  occurrences: 791  block_size:1  repeated_instances:2
sample block:
81FC  9D F1 06 STA STA $06F1,X                  A:28 X:05 Y:01 P:24 SP:F6

<L001>  occurrences: 791  block_size:1  repeated_instances:3
sample block:
820B  CA       DEX                              A:38 X:05 Y:01 P:24 SP:F6

<L001>  occurrences: 791  block_size:1  repeated_instances:2
sample block:
81FC  9D F1 06 STA STA $06F1,X                  A:E8 X:02 Y:00 P:A4 SP:F6

<L001>  occurrences: 791  block_size:1  repeated_instances:3
sample block:
820B  CA       DEX                              A:F8 X:02 Y:00 P:A4 SP:F6

<L017>  occurrences: 50  block_size:1  repeated_instances:3
sample block:
[8153  29 40    AND AND #$40                     A:00 X:FF Y:FF P:26 SP:F8 ; 8155  F0 F9    BEQ BEQ #$F9                     A:00 X:FF Y:FF P:26 SP:F8 ; 8150  AD 02 20 LDA LDA $2002                    A:00 X:FF Y:FF P:26 SP:F8 ; 8153  29 40    AND AND #$40                     A:00 X:FF Y:FF P:26 SP:F8 ; 8155  F0 F9    BEQ BEQ #$F9                     A:00 X:FF Y:FF P:26 SP:F8 ; 8150  AD 02 20 LDA LDA $2002                    A:00 X:FF Y:FF P:26 SP:F8 ; 8153  29 40    AND AND #$40                     A:00 X:FF Y:FF P:26 SP:F8 ; 8155  F0 F9    BEQ BEQ #$F9                     A:00 X:FF Y:FF P:26 SP:F8 ; 8150  AD 02 20 LDA LDA $2002                    A:00 X:FF Y:FF P:26 SP:F8] ×66

<L059>  occurrences: 4  block_size:4  repeated_instances:2
sample block:
8159  88       DEY                              A:40 X:FF Y:14 P:24 SP:F8
815A  D0 FD    BNE BNE #$FD                     A:40 X:FF Y:13 P:24 SP:F8
8159  88       DEY                              A:40 X:FF Y:13 P:24 SP:F8
815A  D0 FD    BNE BNE #$FD                     A:40 X:FF Y:12 P:24 SP:F8

<L023>  occurrences: 34  block_size:2  repeated_instances:2
sample block:
815C  AD 3F 07 LDA LDA $073F                    A:40 X:FF Y:00 P:26 SP:F8
815F  8D 05 20 STA STA $2005                    A:00 X:FF Y:00 P:26 SP:F8

<L006>  occurrences: 114  block_size:2  repeated_instances:2
sample block:
8E06  68       PLA                              A:00 X:FF Y:00 P:26 SP:F3
8E07  85 04    STA STA $04                      A:17 X:FF Y:00 P:24 SP:F4

<L007>  occurrences: 114  block_size:3  repeated_instances:2
sample block:
8E0C  C8       INY                              A:82 X:FF Y:00 P:A4 SP:F5
8E0D  B1 04    LDA LDA ($04),Y                  A:82 X:FF Y:01 P:24 SP:F5
8E0F  85 06    STA STA $06                      A:31 X:FF Y:01 P:24 SP:F5

<L006>  occurrences: 114  block_size:2  repeated_instances:2
sample block:
8E06  68       PLA                              A:06 X:FF Y:06 P:24 SP:F3
8E07  85 04    STA STA $04                      A:36 X:FF Y:06 P:24 SP:F4

<L007>  occurrences: 114  block_size:3  repeated_instances:2
sample block:
8E0C  C8       INY                              A:82 X:FF Y:06 P:A4 SP:F5
8E0D  B1 04    LDA LDA ($04),Y                  A:82 X:FF Y:07 P:24 SP:F5
8E0F  85 06    STA STA $06                      A:45 X:FF Y:07 P:24 SP:F5

<L001>  occurrences: 791  block_size:1  repeated_instances:2
sample block:
82BB  A9 00    LDA LDA #$00                     A:00 X:00 Y:00 P:26 SP:F5

<L002>  occurrences: 396  block_size:2  repeated_instances:2
sample block:
AEEA  AE 53 07 LDX LDX $0753                    A:00 X:00 Y:00 P:26 SP:F3
AEED  BD FC 06 LDA LDA $06FC,X                  A:00 X:00 Y:00 P:26 SP:F3

<L006>  occurrences: 114  block_size:2  repeated_instances:2
sample block:
8E06  68       PLA                              A:00 X:00 Y:00 P:26 SP:EF
8E07  85 04    STA STA $04                      A:4E X:00 Y:00 P:24 SP:F0

<L007>  occurrences: 114  block_size:3  repeated_instances:2
sample block:
8E0C  C8       INY                              A:B0 X:00 Y:00 P:A4 SP:F1
8E0D  B1 04    LDA LDA ($04),Y                  A:B0 X:00 Y:01 P:24 SP:F1
8E0F  85 06    STA STA $06                      A:31 X:00 Y:01 P:24 SP:F1

<L078>  occurrences: 2  block_size:1  repeated_instances:2
sample block:
913D  85 33    STA STA $33                      A:01 X:00 Y:02 P:24 SP:F1

<L049>  occurrences: 8  block_size:12  repeated_instances:2
sample block:
860A  B9 D7 85 LDA LDA $85D7,Y                  A:03 X:00 Y:00 P:24 SP:EF
860D  9D 04 03 STA STA $0304,X                  A:22 X:00 Y:00 P:24 SP:EF
8610  C8       INY                              A:22 X:00 Y:00 P:24 SP:EF
8611  E8       INX                              A:22 X:00 Y:01 P:24 SP:EF
8612  C6 00    DEC DEC $00                      A:22 X:01 Y:01 P:24 SP:EF
8614  10 F4    BPL BPL #$F4                     A:22 X:01 Y:01 P:24 SP:EF
860A  B9 D7 85 LDA LDA $85D7,Y                  A:22 X:01 Y:01 P:24 SP:EF
860D  9D 04 03 STA STA $0304,X                  A:16 X:01 Y:01 P:24 SP:EF
8610  C8       INY                              A:16 X:01 Y:01 P:24 SP:EF
8611  E8       INX                              A:16 X:01 Y:02 P:24 SP:EF
8612  C6 00    DEC DEC $00                      A:16 X:02 Y:02 P:24 SP:EF
8614  10 F4    BPL BPL #$F4                     A:16 X:02 Y:02 P:24 SP:EF

<L053>  occurrences: 6  block_size:4  repeated_instances:2
sample block:
8624  9D 04 03 STA STA $0304,X                  A:22 X:00 Y:01 P:24 SP:EF
8627  A9 3F    LDA LDA #$3F                     A:22 X:00 Y:01 P:24 SP:EF
8629  9D 01 03 STA STA $0301,X                  A:3F X:00 Y:01 P:24 SP:EF
862C  A9 10    LDA LDA #$10                     A:3F X:00 Y:01 P:24 SP:EF

<L027>  occurrences: 27  block_size:1  repeated_instances:3
sample block:
918E  8D F9 07 STA STA $07F9                    A:00 X:00 Y:01 P:27 SP:F1

<L005>  occurrences: 138  block_size:3  repeated_instances:2
sample block:
91BA  85 0E    STA STA $0E                      A:07 X:00 Y:01 P:25 SP:F1
91BC  60       RTS                              A:07 X:00 Y:01 P:25 SP:F1
AEF6  AD 72 07 LDA LDA $0772                    A:07 X:00 Y:01 P:25 SP:F3

<L001>  occurrences: 791  block_size:1  repeated_instances:3
sample block:
AF01  A2 00    LDX LDX #$00                     A:01 X:00 Y:01 P:24 SP:F3

<L001>  occurrences: 791  block_size:1  repeated_instances:2
sample block:
C0CC  AD 45 07 LDA LDA $0745                    A:00 X:00 Y:01 P:A4 SP:F1

<L017>  occurrences: 50  block_size:1  repeated_instances:2
sample block:
C14B  D0 03    BNE BNE #$03                     A:1E X:00 Y:00 P:24 SP:F1

<L047>  occurrences: 9  block_size:1  repeated_instances:2
sample block:
C183  EE 3B 07 INC INC $073B                    A:00 X:00 Y:01 P:27 SP:F1

<L001>  occurrences: 791  block_size:1  repeated_instances:2
sample block:
C1AB  AD 3A 07 LDA LDA $073A                    A:0E X:00 Y:00 P:A4 SP:F1

<L002>  occurrences: 396  block_size:2  repeated_instances:2
sample block:
C1BB  ED 1B 07 SBC SBC $071B                    A:01 X:00 Y:00 P:24 SP:F1
C1BE  B0 0B    BCS BCS #$0B                     A:00 X:00 Y:00 P:27 SP:F1

<L001>  occurrences: 791  block_size:1  repeated_instances:3
sample block:
C1DB  0A       ASL A                            A:1E X:00 Y:00 P:25 SP:F1

<L038>  occurrences: 14  block_size:1  repeated_instances:2
sample block:
C231  C8       INY                              A:E0 X:00 Y:00 P:27 SP:F1

<L024>  occurrences: 34  block_size:1  repeated_instances:3
sample block:
C235  4A       LSR A                            A:00 X:00 Y:02 P:27 SP:F1

<L047>  occurrences: 9  block_size:1  repeated_instances:3
sample block:
C25B  EE 39 07 INC INC $0739                    A:00 X:00 Y:02 P:27 SP:F1

<L001>  occurrences: 791  block_size:1  repeated_instances:3
sample block:
84CA  90 05    BCC BCC #$05                     A:FF X:00 Y:02 P:A5 SP:F1

<L001>  occurrences: 791  block_size:1  repeated_instances:2
sample block:
84DB  DE 2C 01 DEC DEC $012C,X                  A:36 X:00 Y:0B P:25 SP:F1

<L029>  occurrences: 24  block_size:4  repeated_instances:2
sample block:
8505  C9 12    CMP CMP #$12                     A:00 X:00 Y:88 P:27 SP:F1
8507  F0 22    BEQ BEQ #$22                     A:00 X:00 Y:88 P:A4 SP:F1
8509  C9 0D    CMP CMP #$0D                     A:00 X:00 Y:88 P:A4 SP:F1
850B  F0 1E    BEQ BEQ #$1E                     A:00 X:00 Y:88 P:A4 SP:F1

<L013>  occurrences: 64  block_size:1  repeated_instances:2
sample block:
E5C1  99 04 02 STA STA $0204,Y                  A:F5 X:00 Y:58 P:A5 SP:EF

<L013>  occurrences: 64  block_size:1  repeated_instances:2
sample block:
854D  99 02 02 STA STA $0202,Y                  A:02 X:00 Y:58 P:24 SP:F1

<L030>  occurrences: 24  block_size:2  repeated_instances:2
sample block:
8558  BD 9F 84 LDA LDA $849F,X                  A:16 X:16 Y:58 P:24 SP:F1
855B  99 01 02 STA STA $0201,Y                  A:FD X:16 Y:58 P:A4 SP:F1

<L002>  occurrences: 396  block_size:2  repeated_instances:2
sample block:
AF0B  E8       INX                              A:FE X:00 Y:58 P:26 SP:F3
AF0C  E0 06    CPX CPX #$06                     A:FE X:01 Y:58 P:24 SP:F3

<L001>  occurrences: 791  block_size:1  repeated_instances:2
sample block:
C0CC  AD 45 07 LDA LDA $0745                    A:00 X:01 Y:58 P:A4 SP:F1

<L017>  occurrences: 50  block_size:1  repeated_instances:2
sample block:
C14B  D0 03    BNE BNE #$03                     A:6B X:01 Y:03 P:24 SP:F1

<L001>  occurrences: 791  block_size:1  repeated_instances:2
sample block:
C1AB  AD 3A 07 LDA LDA $073A                    A:0B X:01 Y:03 P:A4 SP:F1

<L002>  occurrences: 396  block_size:2  repeated_instances:2
sample block:
C1BB  ED 1B 07 SBC SBC $071B                    A:01 X:01 Y:03 P:24 SP:F1
C1BE  B0 0B    BCS BCS #$0B                     A:00 X:01 Y:03 P:27 SP:F1

<L001>  occurrences: 791  block_size:1  repeated_instances:3
sample block:
84CA  90 05    BCC BCC #$05                     A:36 X:01 Y:03 P:25 SP:F1

<L001>  occurrences: 791  block_size:1  repeated_instances:2
sample block:
84DB  DE 2C 01 DEC DEC $012C,X                  A:FE X:01 Y:0B P:A5 SP:F1

<L029>  occurrences: 24  block_size:4  repeated_instances:2
sample block:
8505  C9 12    CMP CMP #$12                     A:00 X:01 Y:A0 P:27 SP:F1
8507  F0 22    BEQ BEQ #$22                     A:00 X:01 Y:A0 P:A4 SP:F1
8509  C9 0D    CMP CMP #$0D                     A:00 X:01 Y:A0 P:A4 SP:F1
850B  F0 1E    BEQ BEQ #$1E                     A:00 X:01 Y:A0 P:A4 SP:F1

<L013>  occurrences: 64  block_size:1  repeated_instances:2
sample block:
E5C1  99 04 02 STA STA $0204,Y                  A:F6 X:01 Y:58 P:A5 SP:EF

<L013>  occurrences: 64  block_size:1  repeated_instances:2
sample block:
854D  99 02 02 STA STA $0202,Y                  A:02 X:01 Y:58 P:25 SP:F1

<L030>  occurrences: 24  block_size:2  repeated_instances:2
sample block:
8558  BD 9F 84 LDA LDA $849F,X                  A:16 X:16 Y:58 P:24 SP:F1
855B  99 01 02 STA STA $0201,Y                  A:FD X:16 Y:58 P:A4 SP:F1

<L002>  occurrences: 396  block_size:2  repeated_instances:2
sample block:
AF0B  E8       INX                              A:FE X:01 Y:58 P:24 SP:F3
AF0C  E0 06    CPX CPX #$06                     A:FE X:02 Y:58 P:24 SP:F3

<L001>  occurrences: 791  block_size:1  repeated_instances:2
sample block:
C0CC  AD 45 07 LDA LDA $0745                    A:00 X:02 Y:58 P:A4 SP:F1

<L017>  occurrences: 50  block_size:1  repeated_instances:2
sample block:
C14B  D0 03    BNE BNE #$03                     A:6B X:02 Y:03 P:24 SP:F1

<L001>  occurrences: 791  block_size:1  repeated_instances:2
sample block:
C1AB  AD 3A 07 LDA LDA $073A                    A:0B X:02 Y:03 P:A4 SP:F1

<L002>  occurrences: 396  block_size:2  repeated_instances:2
sample block:
C1BB  ED 1B 07 SBC SBC $071B                    A:01 X:02 Y:03 P:24 SP:F1
C1BE  B0 0B    BCS BCS #$0B                     A:00 X:02 Y:03 P:27 SP:F1

<L001>  occurrences: 791  block_size:1  repeated_instances:3
sample block:
84CA  90 05    BCC BCC #$05                     A:FE X:02 Y:03 P:A5 SP:F1

<L001>  occurrences: 791  block_size:1  repeated_instances:2
sample block:
84DB  DE 2C 01 DEC DEC $012C,X                  A:FF X:02 Y:0B P:A5 SP:F1

<L029>  occurrences: 24  block_size:4  repeated_instances:2
sample block:
8505  C9 12    CMP CMP #$12                     A:00 X:02 Y:B8 P:27 SP:F1
8507  F0 22    BEQ BEQ #$22                     A:00 X:02 Y:B8 P:A4 SP:F1
8509  C9 0D    CMP CMP #$0D                     A:00 X:02 Y:B8 P:A4 SP:F1
850B  F0 1E    BEQ BEQ #$1E                     A:00 X:02 Y:B8 P:A4 SP:F1

<L013>  occurrences: 64  block_size:1  repeated_instances:2
sample block:
E5C1  99 04 02 STA STA $0204,Y                  A:2D X:02 Y:58 P:25 SP:EF

<L013>  occurrences: 64  block_size:1  repeated_instances:2
sample block:
854D  99 02 02 STA STA $0202,Y                  A:02 X:02 Y:58 P:25 SP:F1

<L030>  occurrences: 24  block_size:2  repeated_instances:2
sample block:
8558  BD 9F 84 LDA LDA $849F,X                  A:16 X:16 Y:58 P:24 SP:F1
855B  99 01 02 STA STA $0201,Y                  A:FD X:16 Y:58 P:A4 SP:F1

<L002>  occurrences: 396  block_size:2  repeated_instances:2
sample block:
AF0B  E8       INX                              A:FE X:02 Y:58 P:24 SP:F3
AF0C  E0 06    CPX CPX #$06                     A:FE X:03 Y:58 P:24 SP:F3

<L001>  occurrences: 791  block_size:1  repeated_instances:2
sample block:
C0CC  AD 45 07 LDA LDA $0745                    A:00 X:03 Y:58 P:A4 SP:F1

<L017>  occurrences: 50  block_size:1  repeated_instances:2
sample block:
C14B  D0 03    BNE BNE #$03                     A:6B X:03 Y:03 P:24 SP:F1

<L001>  occurrences: 791  block_size:1  repeated_instances:2
sample block:
C1AB  AD 3A 07 LDA LDA $073A                    A:0B X:03 Y:03 P:A4 SP:F1

<L002>  occurrences: 396  block_size:2  repeated_instances:2
sample block:
C1BB  ED 1B 07 SBC SBC $071B                    A:01 X:03 Y:03 P:24 SP:F1
C1BE  B0 0B    BCS BCS #$0B                     A:00 X:03 Y:03 P:27 SP:F1

<L001>  occurrences: 791  block_size:1  repeated_instances:3
sample block:
84CA  90 05    BCC BCC #$05                     A:FF X:03 Y:03 P:A5 SP:F1

<L001>  occurrences: 791  block_size:1  repeated_instances:2
sample block:
84DB  DE 2C 01 DEC DEC $012C,X                  A:36 X:03 Y:0B P:25 SP:F1

<L029>  occurrences: 24  block_size:4  repeated_instances:2
sample block:
8505  C9 12    CMP CMP #$12                     A:00 X:03 Y:D0 P:27 SP:F1
8507  F0 22    BEQ BEQ #$22                     A:00 X:03 Y:D0 P:A4 SP:F1
8509  C9 0D    CMP CMP #$0D                     A:00 X:03 Y:D0 P:A4 SP:F1
850B  F0 1E    BEQ BEQ #$1E                     A:00 X:03 Y:D0 P:A4 SP:F1

<L013>  occurrences: 64  block_size:1  repeated_instances:2
sample block:
E5C1  99 04 02 STA STA $0204,Y                  A:F5 X:03 Y:58 P:A5 SP:EF

<L013>  occurrences: 64  block_size:1  repeated_instances:2
sample block:
854D  99 02 02 STA STA $0202,Y                  A:02 X:03 Y:58 P:24 SP:F1

<L030>  occurrences: 24  block_size:2  repeated_instances:2
sample block:
8558  BD 9F 84 LDA LDA $849F,X                  A:16 X:16 Y:58 P:24 SP:F1
855B  99 01 02 STA STA $0201,Y                  A:FD X:16 Y:58 P:A4 SP:F1

<L002>  occurrences: 396  block_size:2  repeated_instances:2
sample block:
AF0B  E8       INX                              A:FE X:03 Y:58 P:24 SP:F3
AF0C  E0 06    CPX CPX #$06                     A:FE X:04 Y:58 P:24 SP:F3

<L001>  occurrences: 791  block_size:1  repeated_instances:2
sample block:
C0CC  AD 45 07 LDA LDA $0745                    A:00 X:04 Y:58 P:A4 SP:F1

<L017>  occurrences: 50  block_size:1  repeated_instances:2
sample block:
C14B  D0 03    BNE BNE #$03                     A:6B X:04 Y:03 P:24 SP:F1

<L001>  occurrences: 791  block_size:1  repeated_instances:2
sample block:
C1AB  AD 3A 07 LDA LDA $073A                    A:0B X:04 Y:03 P:A4 SP:F1

<L002>  occurrences: 396  block_size:2  repeated_instances:2
sample block:
C1BB  ED 1B 07 SBC SBC $071B                    A:01 X:04 Y:03 P:24 SP:F1
C1BE  B0 0B    BCS BCS #$0B                     A:00 X:04 Y:03 P:27 SP:F1

<L001>  occurrences: 791  block_size:1  repeated_instances:3
sample block:
84CA  90 05    BCC BCC #$05                     A:36 X:04 Y:03 P:25 SP:F1

<L001>  occurrences: 791  block_size:1  repeated_instances:2
sample block:
84DB  DE 2C 01 DEC DEC $012C,X                  A:FE X:04 Y:0B P:A5 SP:F1

<L029>  occurrences: 24  block_size:4  repeated_instances:2
sample block:
8505  C9 12    CMP CMP #$12                     A:00 X:04 Y:E8 P:27 SP:F1
8507  F0 22    BEQ BEQ #$22                     A:00 X:04 Y:E8 P:A4 SP:F1
8509  C9 0D    CMP CMP #$0D                     A:00 X:04 Y:E8 P:A4 SP:F1
850B  F0 1E    BEQ BEQ #$1E                     A:00 X:04 Y:E8 P:A4 SP:F1

<L013>  occurrences: 64  block_size:1  repeated_instances:2
sample block:
E5C1  99 04 02 STA STA $0204,Y                  A:F6 X:04 Y:58 P:A5 SP:EF

<L013>  occurrences: 64  block_size:1  repeated_instances:2
sample block:
854D  99 02 02 STA STA $0202,Y                  A:02 X:04 Y:58 P:25 SP:F1

<L030>  occurrences: 24  block_size:2  repeated_instances:2
sample block:
8558  BD 9F 84 LDA LDA $849F,X                  A:16 X:16 Y:58 P:24 SP:F1
855B  99 01 02 STA STA $0201,Y                  A:FD X:16 Y:58 P:A4 SP:F1

<L002>  occurrences: 396  block_size:2  repeated_instances:2
sample block:
AF0B  E8       INX                              A:FE X:04 Y:58 P:24 SP:F3
AF0C  E0 06    CPX CPX #$06                     A:FE X:05 Y:58 P:24 SP:F3

<L001>  occurrences: 791  block_size:1  repeated_instances:2
sample block:
C0CC  AD 45 07 LDA LDA $0745                    A:00 X:05 Y:58 P:A4 SP:F1

<L017>  occurrences: 50  block_size:1  repeated_instances:2
sample block:
C14B  D0 03    BNE BNE #$03                     A:6B X:05 Y:03 P:24 SP:F1

<L001>  occurrences: 791  block_size:1  repeated_instances:3
sample block:
84CA  90 05    BCC BCC #$05                     A:FE X:05 Y:04 P:A5 SP:F1

<L001>  occurrences: 791  block_size:1  repeated_instances:2
sample block:
84DB  DE 2C 01 DEC DEC $012C,X                  A:FF X:05 Y:0B P:A5 SP:F1

<L029>  occurrences: 24  block_size:4  repeated_instances:2
sample block:
8505  C9 12    CMP CMP #$12                     A:00 X:05 Y:28 P:27 SP:F1
8507  F0 22    BEQ BEQ #$22                     A:00 X:05 Y:28 P:A4 SP:F1
8509  C9 0D    CMP CMP #$0D                     A:00 X:05 Y:28 P:A4 SP:F1
850B  F0 1E    BEQ BEQ #$1E                     A:00 X:05 Y:28 P:A4 SP:F1

<L013>  occurrences: 64  block_size:1  repeated_instances:2
sample block:
E5C1  99 04 02 STA STA $0204,Y                  A:2D X:05 Y:58 P:25 SP:EF

<L013>  occurrences: 64  block_size:1  repeated_instances:2
sample block:
854D  99 02 02 STA STA $0202,Y                  A:02 X:05 Y:58 P:25 SP:F1

<L030>  occurrences: 24  block_size:2  repeated_instances:2
sample block:
8558  BD 9F 84 LDA LDA $849F,X                  A:16 X:16 Y:58 P:24 SP:F1
855B  99 01 02 STA STA $0201,Y                  A:FD X:16 Y:58 P:A4 SP:F1

<L002>  occurrences: 396  block_size:2  repeated_instances:2
sample block:
AF0B  E8       INX                              A:FE X:05 Y:58 P:24 SP:F3
AF0C  E0 06    CPX CPX #$06                     A:FE X:06 Y:58 P:24 SP:F3

<L060>  occurrences: 4  block_size:1  repeated_instances:2
sample block:
F1C2  20 D7 F1 JSR JSR $F1D7                    A:00 X:00 Y:00 P:27 SP:F0

<L001>  occurrences: 791  block_size:1  repeated_instances:3
sample block:
F1FA  B9 1C 07 LDA LDA $071C,Y                  A:00 X:00 Y:01 P:25 SP:EC

<L001>  occurrences: 791  block_size:1  repeated_instances:3
sample block:
F1FA  B9 1C 07 LDA LDA $071C,Y                  A:00 X:00 Y:00 P:27 SP:EC

<L001>  occurrences: 791  block_size:1  repeated_instances:3
sample block:
F1DA  4A       LSR A                            A:00 X:00 Y:FF P:A5 SP:EE

<L041>  occurrences: 12  block_size:1  repeated_instances:2
sample block:
F1C5  0A       ASL A                            A:00 X:00 Y:FF P:A5 SP:F0

<L002>  occurrences: 396  block_size:2  repeated_instances:2
sample block:
F1CB  85 00    STA STA $00                      A:00 X:00 Y:FF P:26 SP:F0
F1CD  68       PLA                              A:00 X:00 Y:FF P:26 SP:F0

<L039>  occurrences: 14  block_size:9  repeated_instances:2
sample block:
AF16  20 E9 EE JSR JSR $EEE9                    A:28 X:05 Y:00 P:25 SP:F3
EEE9  AD 9E 07 LDA LDA $079E                    A:28 X:05 Y:00 P:25 SP:F1
EEEC  F0 05    BEQ BEQ #$05                     A:00 X:05 Y:00 P:27 SP:F1
EEF3  A5 0E    LDA LDA $0E                      A:00 X:05 Y:00 P:27 SP:F1
EEF5  C9 0B    CMP CMP #$0B                     A:07 X:05 Y:00 P:25 SP:F1
EEF7  F0 47    BEQ BEQ #$47                     A:07 X:05 Y:00 P:A4 SP:F1
EEF9  AD 0B 07 LDA LDA $070B                    A:07 X:05 Y:00 P:A4 SP:F1
EEFC  D0 3C    BNE BNE #$3C                     A:00 X:05 Y:00 P:26 SP:F1
EEFE  AC 04 07 LDY LDY $0704                    A:00 X:05 Y:00 P:26 SP:F1

<L032>  occurrences: 22  block_size:11  repeated_instances:2
sample block:
EF37  4C 45 EF JMP JMP $EF45                    A:B8 X:05 Y:0A P:A4 SP:F1
EF45  8D D5 06 STA STA $06D5                    A:B8 X:05 Y:0A P:A4 SP:F1
EF48  A9 04    LDA LDA #$04                     A:B8 X:05 Y:0A P:A4 SP:F1
EF4A  20 BE EF JSR JSR $EFBE                    A:04 X:05 Y:0A P:24 SP:F1
EFBE  85 07    STA STA $07                      A:04 X:05 Y:0A P:24 SP:EF
EFC0  AD AD 03 LDA LDA $03AD                    A:04 X:05 Y:0A P:24 SP:EF
EFC3  8D 55 07 STA STA $0755                    A:28 X:05 Y:0A P:24 SP:EF
EFC6  85 05    STA STA $05                      A:28 X:05 Y:0A P:24 SP:EF
EFC8  AD B8 03 LDA LDA $03B8                    A:28 X:05 Y:0A P:24 SP:EF
EFCB  85 02    STA STA $02                      A:B0 X:05 Y:0A P:A4 SP:EF
EFCD  A5 33    LDA LDA $33                      A:B0 X:05 Y:0A P:A4 SP:EF

<L024>  occurrences: 34  block_size:1  repeated_instances:2
sample block:
F284  4A       LSR A                            A:01 X:B8 Y:04 P:24 SP:ED

<L036>  occurrences: 16  block_size:2  repeated_instances:2
sample block:
F296  99 01 02 STA STA $0201,Y                  A:FC X:B8 Y:04 P:A4 SP:ED
F299  A5 01    LDA LDA $01                      A:FC X:B8 Y:04 P:A4 SP:ED

<L013>  occurrences: 64  block_size:1  repeated_instances:2
sample block:
F2A2  99 02 02 STA STA $0202,Y                  A:00 X:B8 Y:04 P:26 SP:ED

<L001>  occurrences: 791  block_size:1  repeated_instances:2
sample block:
F2AA  99 00 02 STA STA $0200,Y                  A:B0 X:B8 Y:04 P:A4 SP:ED

<L001>  occurrences: 791  block_size:1  repeated_instances:3
sample block:
F2BB  A5 02    LDA LDA $02                      A:30 X:B8 Y:04 P:24 SP:ED

<L028>  occurrences: 25  block_size:1  repeated_instances:2
sample block:
F2C7  E8       INX                              A:0C X:B8 Y:0C P:24 SP:ED

<L018>  occurrences: 46  block_size:4  repeated_instances:2
sample block:
EFE7  C6 07    DEC DEC $07                      A:0C X:BA Y:0C P:A4 SP:EF
EFE9  D0 F1    BNE BNE #$F1                     A:0C X:BA Y:0C P:24 SP:EF
EFDC  BD 17 EE LDA LDA $EE17,X                  A:0C X:BA Y:0C P:24 SP:EF
EFDF  85 00    STA STA $00                      A:FC X:BA Y:0C P:A4 SP:EF

<L024>  occurrences: 34  block_size:1  repeated_instances:2
sample block:
F284  4A       LSR A                            A:01 X:BA Y:0C P:24 SP:ED

<L036>  occurrences: 16  block_size:2  repeated_instances:2
sample block:
F296  99 01 02 STA STA $0201,Y                  A:FC X:BA Y:0C P:A4 SP:ED
F299  A5 01    LDA LDA $01                      A:FC X:BA Y:0C P:A4 SP:ED

<L013>  occurrences: 64  block_size:1  repeated_instances:2
sample block:
F2A2  99 02 02 STA STA $0202,Y                  A:00 X:BA Y:0C P:26 SP:ED

<L001>  occurrences: 791  block_size:1  repeated_instances:2
sample block:
F2AA  99 00 02 STA STA $0200,Y                  A:B8 X:BA Y:0C P:A4 SP:ED

<L001>  occurrences: 791  block_size:1  repeated_instances:3
sample block:
F2BB  A5 02    LDA LDA $02                      A:30 X:BA Y:0C P:24 SP:ED

<L028>  occurrences: 25  block_size:1  repeated_instances:2
sample block:
F2C7  E8       INX                              A:14 X:BA Y:14 P:24 SP:ED

<L018>  occurrences: 46  block_size:4  repeated_instances:2
sample block:
EFE7  C6 07    DEC DEC $07                      A:14 X:BC Y:14 P:A4 SP:EF
EFE9  D0 F1    BNE BNE #$F1                     A:14 X:BC Y:14 P:24 SP:EF
EFDC  BD 17 EE LDA LDA $EE17,X                  A:14 X:BC Y:14 P:24 SP:EF
EFDF  85 00    STA STA $00                      A:3A X:BC Y:14 P:24 SP:EF

<L024>  occurrences: 34  block_size:1  repeated_instances:2
sample block:
F284  4A       LSR A                            A:01 X:BC Y:14 P:24 SP:ED

<L036>  occurrences: 16  block_size:2  repeated_instances:2
sample block:
F296  99 01 02 STA STA $0201,Y                  A:3A X:BC Y:14 P:24 SP:ED
F299  A5 01    LDA LDA $01                      A:3A X:BC Y:14 P:24 SP:ED

<L013>  occurrences: 64  block_size:1  repeated_instances:2
sample block:
F2A2  99 02 02 STA STA $0202,Y                  A:00 X:BC Y:14 P:26 SP:ED

<L001>  occurrences: 791  block_size:1  repeated_instances:2
sample block:
F2AA  99 00 02 STA STA $0200,Y                  A:C0 X:BC Y:14 P:A4 SP:ED

<L001>  occurrences: 791  block_size:1  repeated_instances:3
sample block:
F2BB  A5 02    LDA LDA $02                      A:30 X:BC Y:14 P:24 SP:ED

<L028>  occurrences: 25  block_size:1  repeated_instances:2
sample block:
F2C7  E8       INX                              A:1C X:BC Y:1C P:24 SP:ED

<L018>  occurrences: 46  block_size:4  repeated_instances:2
sample block:
EFE7  C6 07    DEC DEC $07                      A:1C X:BE Y:1C P:A4 SP:EF
EFE9  D0 F1    BNE BNE #$F1                     A:1C X:BE Y:1C P:24 SP:EF
EFDC  BD 17 EE LDA LDA $EE17,X                  A:1C X:BE Y:1C P:24 SP:EF
EFDF  85 00    STA STA $00                      A:4F X:BE Y:1C P:24 SP:EF

<L024>  occurrences: 34  block_size:1  repeated_instances:2
sample block:
F284  4A       LSR A                            A:01 X:BE Y:1C P:24 SP:ED

<L036>  occurrences: 16  block_size:2  repeated_instances:2
sample block:
F296  99 01 02 STA STA $0201,Y                  A:4F X:BE Y:1C P:24 SP:ED
F299  A5 01    LDA LDA $01                      A:4F X:BE Y:1C P:24 SP:ED

<L013>  occurrences: 64  block_size:1  repeated_instances:2
sample block:
F2A2  99 02 02 STA STA $0202,Y                  A:00 X:BE Y:1C P:26 SP:ED

<L001>  occurrences: 791  block_size:1  repeated_instances:2
sample block:
F2AA  99 00 02 STA STA $0200,Y                  A:C8 X:BE Y:1C P:A4 SP:ED

<L001>  occurrences: 791  block_size:1  repeated_instances:3
sample block:
F2BB  A5 02    LDA LDA $02                      A:30 X:BE Y:1C P:24 SP:ED

<L028>  occurrences: 25  block_size:1  repeated_instances:2
sample block:
F2C7  E8       INX                              A:24 X:BE Y:24 P:24 SP:ED

<L002>  occurrences: 396  block_size:2  repeated_instances:2
sample block:
EFE7  C6 07    DEC DEC $07                      A:24 X:C0 Y:24 P:A4 SP:EF
EFE9  D0 F1    BNE BNE #$F1                     A:24 X:C0 Y:24 P:26 SP:EF

<L001>  occurrences: 791  block_size:1  repeated_instances:2
sample block:
F0EC  A5 0E    LDA LDA $0E                      A:24 X:C0 Y:04 P:24 SP:EF

<L001>  occurrences: 791  block_size:1  repeated_instances:3
sample block:
EF50  AD 11 07 LDA LDA $0711                    A:40 X:C0 Y:04 P:25 SP:F1

<L003>  occurrences: 238  block_size:12  repeated_instances:3
sample block:
EF7D  4A       LSR A                            A:00 X:C0 Y:04 P:27 SP:F1
EF7E  4A       LSR A                            A:00 X:C0 Y:04 P:26 SP:F1
EF81  85 00    STA STA $00                      A:00 X:C0 Y:04 P:26 SP:F1
EF83  A2 03    LDX LDX #$03                     A:00 X:C0 Y:04 P:26 SP:F1
EF85  AD E4 06 LDA LDA $06E4                    A:00 X:03 Y:04 P:24 SP:F1
EF88  18       CLC                              A:04 X:03 Y:04 P:24 SP:F1
EF89  69 18    ADC ADC #$18                     A:04 X:03 Y:04 P:24 SP:F1
EF8B  A8       TAY                              A:1C X:03 Y:04 P:24 SP:F1
EF8C  A9 F8    LDA LDA #$F8                     A:1C X:03 Y:1C P:24 SP:F1
EF8E  46 00    LSR LSR $00                      A:F8 X:03 Y:1C P:A4 SP:F1
EF90  90 03    BCC BCC #$03                     A:F8 X:03 Y:1C P:26 SP:F1
EF95  98       TYA                              A:F8 X:03 Y:1C P:26 SP:F1

<L026>  occurrences: 30  block_size:5  repeated_instances:2
sample block:
EF8E  46 00    LSR LSR $00                      A:F8 X:00 Y:04 P:A5 SP:F1
EF90  90 03    BCC BCC #$03                     A:F8 X:00 Y:04 P:26 SP:F1
EF95  98       TYA                              A:F8 X:00 Y:04 P:26 SP:F1
EF96  38       SEC                              A:04 X:00 Y:04 P:24 SP:F1
EF97  E9 08    SBC SBC #$08                     A:04 X:00 Y:04 P:25 SP:F1

<L032>  occurrences: 22  block_size:11  repeated_instances:2
sample block:
BED6  86 08    STX STX $08                      A:FC X:01 Y:FC P:24 SP:F1
BED8  AD 01 03 LDA LDA $0301                    A:FC X:01 Y:FC P:24 SP:F1
BEDB  D0 21    BNE BNE #$21                     A:3F X:01 Y:FC P:24 SP:F1
BEFE  CA       DEX                              A:3F X:01 Y:FC P:24 SP:F1
BEFF  10 D5    BPL BPL #$D5                     A:3F X:00 Y:FC P:26 SP:F1
BF01  60       RTS                              A:3F X:FF Y:FC P:A4 SP:F1
AF1C  A2 01    LDX LDX #$01                     A:3F X:FF Y:FC P:A4 SP:F3
AF1E  86 08    STX STX $08                      A:3F X:01 Y:FC P:24 SP:F3
AF20  20 70 BE JSR JSR $BE70                    A:3F X:01 Y:FC P:24 SP:F3
BE70  B5 26    LDA LDA $26,X                    A:3F X:01 Y:FC P:24 SP:F1
BE72  F0 5D    BEQ BEQ #$5D                     A:00 X:01 Y:FC P:26 SP:F1

<L039>  occurrences: 14  block_size:9  repeated_instances:2
sample block:
BB98  86 08    STX STX $08                      A:00 X:08 Y:FC P:24 SP:F1
BB9A  B5 2A    LDA LDA $2A,X                    A:00 X:08 Y:FC P:24 SP:F1
BB9C  F0 56    BEQ BEQ #$56                     A:00 X:08 Y:FC P:26 SP:F1
BBF4  CA       DEX                              A:00 X:08 Y:FC P:26 SP:F1
BBF5  10 A1    BPL BPL #$A1                     A:00 X:07 Y:FC P:24 SP:F1
BB98  86 08    STX STX $08                      A:00 X:07 Y:FC P:24 SP:F1
BB9A  B5 2A    LDA LDA $2A,X                    A:00 X:07 Y:FC P:24 SP:F1
BB9C  F0 56    BEQ BEQ #$56                     A:00 X:07 Y:FC P:26 SP:F1
BBF4  CA       DEX                              A:00 X:07 Y:FC P:26 SP:F1

<L001>  occurrences: 791  block_size:1  repeated_instances:2
sample block:
B9CC  AC CC 06 LDY LDY $06CC                    A:00 X:02 Y:FC P:26 SP:F1

<L005>  occurrences: 138  block_size:3  repeated_instances:2
sample block:
B9DA  F0 3E    BEQ BEQ #$3E                     A:00 X:02 Y:00 P:26 SP:F1
BA1A  B5 16    LDA LDA $16,X                    A:00 X:02 Y:00 P:26 SP:F1
BA1C  C9 33    CMP CMP #$33                     A:00 X:02 Y:00 P:26 SP:F1

<L001>  occurrences: 791  block_size:1  repeated_instances:2
sample block:
B9CC  AC CC 06 LDY LDY $06CC                    A:A5 X:01 Y:00 P:A4 SP:F1

<L005>  occurrences: 138  block_size:3  repeated_instances:2
sample block:
B9DA  F0 3E    BEQ BEQ #$3E                     A:00 X:01 Y:05 P:26 SP:F1
BA1A  B5 16    LDA LDA $16,X                    A:00 X:01 Y:05 P:26 SP:F1
BA1C  C9 33    CMP CMP #$33                     A:00 X:01 Y:05 P:26 SP:F1

<L001>  occurrences: 791  block_size:1  repeated_instances:2
sample block:
B9CC  AC CC 06 LDY LDY $06CC                    A:D2 X:00 Y:05 P:A4 SP:F1

<L018>  occurrences: 46  block_size:4  repeated_instances:2
sample block:
B9DA  F0 3E    BEQ BEQ #$3E                     A:00 X:00 Y:02 P:26 SP:F1
BA1A  B5 16    LDA LDA $16,X                    A:00 X:00 Y:02 P:26 SP:F1
BA1C  C9 33    CMP CMP #$33                     A:00 X:00 Y:02 P:26 SP:F1
BA1E  D0 0D    BNE BNE #$0D                     A:00 X:00 Y:02 P:A4 SP:F1

<L017>  occurrences: 50  block_size:1  repeated_instances:2
sample block:
89E3  29 07    AND AND #$07                     A:0F X:05 Y:02 P:24 SP:F1

<L005>  occurrences: 138  block_size:3  repeated_instances:2
sample block:
AF3B  A5 B5    LDA LDA $B5                      A:07 X:05 Y:02 P:24 SP:F3
AF3D  C9 02    CMP CMP #$02                     A:01 X:05 Y:02 P:24 SP:F3
AF3F  10 11    BPL BPL #$11                     A:01 X:05 Y:02 P:A4 SP:F3

<L010>  occurrences: 80  block_size:6  repeated_instances:2
sample block:
AF67  A5 0A    LDA LDA $0A                      A:00 X:05 Y:02 P:26 SP:F3
AF69  85 0D    STA STA $0D                      A:00 X:05 Y:02 P:26 SP:F3
AF6B  A9 00    LDA LDA #$00                     A:00 X:05 Y:02 P:26 SP:F3
AF6D  85 0C    STA STA $0C                      A:00 X:05 Y:02 P:26 SP:F3
AF6F  AD 73 07 LDA LDA $0773                    A:00 X:05 Y:02 P:26 SP:F3
AF72  C9 06    CMP CMP #$06                     A:00 X:05 Y:02 P:26 SP:F3

<L001>  occurrences: 791  block_size:1  repeated_instances:2
sample block:
FFFA  82 80    *NOP *NOP #$80                   A:90 X:05 Y:02 P:26 SP:FB

<L005>  occurrences: 138  block_size:3  repeated_instances:2
sample block:
FFF0  19 19 1A ORA ORA $1A19,Y                  A:90 X:05 Y:02 P:26 SP:F8
FFF3  1A       *NOP                             A:B0 X:05 Y:02 P:A4 SP:F8
FFF4  1C 1D 1D *NOP *NOP $1D1D,X                A:B0 X:05 Y:02 P:A4 SP:F8

<L011>  occurrences: 64  block_size:2  repeated_instances:2
sample block:
8085  29 7F    AND AND #$7F                     A:10 X:05 Y:02 P:24 SP:2E
8087  8D 78 07 STA STA $0778                    A:10 X:05 Y:02 P:24 SP:2E

<L002>  occurrences: 396  block_size:2  repeated_instances:2
sample block:
80AB  20 E6 8E JSR JSR $8EE6                    A:00 X:C0 Y:00 P:26 SP:2E
8EE6  8D 05 20 STA STA $2005                    A:00 X:C0 Y:00 P:26 SP:2C

<L001>  occurrences: 791  block_size:1  repeated_instances:2
sample block:
80BC  85 00    STA STA $00                      A:01 X:00 Y:00 P:24 SP:2E

<L002>  occurrences: 396  block_size:2  repeated_instances:2
sample block:
8EDD  AE 02 20 LDX LDX $2002                    A:03 X:00 Y:00 P:24 SP:2C
8EE0  A0 00    LDY LDY #$00                     A:03 X:40 Y:00 P:24 SP:2C

<L008>  occurrences: 106  block_size:3  repeated_instances:2
sample block:
8E92  8D 06 20 STA STA $2006                    A:3F X:40 Y:00 P:24 SP:2C
8E95  C8       INY                              A:3F X:40 Y:00 P:24 SP:2C
8E96  B1 00    LDA LDA ($00),Y                  A:3F X:40 Y:01 P:24 SP:2C

<L003>  occurrences: 238  block_size:12  repeated_instances:4
sample block:
8EA0  AD 78 07 LDA LDA $0778                    A:08 X:40 Y:02 P:24 SP:2B
8EA3  09 04    ORA ORA #$04                     A:10 X:40 Y:02 P:24 SP:2B
8EA5  B0 02    BCS BCS #$02                     A:14 X:40 Y:02 P:24 SP:2B
8EA7  29 FB    AND AND #$FB                     A:14 X:40 Y:02 P:24 SP:2B
8EA9  20 ED 8E JSR JSR $8EED                    A:10 X:40 Y:02 P:24 SP:2B
8EED  8D 00 20 STA STA $2000                    A:10 X:40 Y:02 P:24 SP:29
8EF0  8D 78 07 STA STA $0778                    A:10 X:40 Y:02 P:24 SP:29
8EF3  60       RTS                              A:10 X:40 Y:02 P:24 SP:29
8EAC  68       PLA                              A:10 X:40 Y:02 P:24 SP:2B
8EAD  0A       ASL A                            A:08 X:40 Y:02 P:24 SP:2C
8EAE  90 03    BCC BCC #$03                     A:10 X:40 Y:02 P:24 SP:2C
8EB3  4A       LSR A                            A:10 X:40 Y:02 P:24 SP:2C

<L026>  occurrences: 30  block_size:5  repeated_instances:2
sample block:
8ED4  8D 06 20 STA STA $2006                    A:00 X:00 Y:06 P:26 SP:2C
8ED7  8D 06 20 STA STA $2006                    A:00 X:00 Y:06 P:26 SP:2C
8EDA  8D 06 20 STA STA $2006                    A:00 X:00 Y:06 P:26 SP:2C
8EDD  AE 02 20 LDX LDX $2002                    A:00 X:00 Y:06 P:26 SP:2C
8EE0  A0 00    LDY LDY #$00                     A:00 X:40 Y:06 P:24 SP:2C

<L001>  occurrences: 791  block_size:1  repeated_instances:2
sample block:
80CB  E0 06    CPX CPX #$06                     A:00 X:00 Y:00 P:26 SP:2E

<L022>  occurrences: 34  block_size:1  repeated_instances:2
sample block:
80D5  9D 00 03 STA STA $0300,X                  A:00 X:00 Y:00 P:26 SP:2E

<L001>  occurrences: 791  block_size:1  repeated_instances:2
sample block:
80DB  8D 73 07 STA STA $0773                    A:00 X:00 Y:00 P:26 SP:2E

<L010>  occurrences: 80  block_size:6  repeated_instances:2
sample block:
8FA1  BD DD 07 LDA LDA $07DD,X                  A:00 X:05 Y:05 P:25 SP:2A
8FA4  F9 D7 07 SBC SBC $07D7,Y                  A:00 X:05 Y:05 P:27 SP:2A
8FA7  CA       DEX                              A:00 X:05 Y:05 P:27 SP:2A
8FA8  88       DEY                              A:00 X:04 Y:05 P:25 SP:2A
8FA9  10 F6    BPL BPL #$F6                     A:00 X:04 Y:04 P:25 SP:2A
8FA1  BD DD 07 LDA LDA $07DD,X                  A:00 X:04 Y:04 P:25 SP:2A

<L005>  occurrences: 138  block_size:3  repeated_instances:2
sample block:
8FAF  BD DD 07 LDA LDA $07DD,X                  A:00 X:00 Y:00 P:27 SP:2A
8FB2  99 D7 07 STA STA $07D7,Y                  A:00 X:00 Y:00 P:27 SP:2A
8FB5  E8       INX                              A:00 X:00 Y:00 P:27 SP:2A

<L010>  occurrences: 80  block_size:6  repeated_instances:2
sample block:
8FA1  BD DD 07 LDA LDA $07DD,X                  A:00 X:0B Y:05 P:25 SP:2C
8FA4  F9 D7 07 SBC SBC $07D7,Y                  A:00 X:0B Y:05 P:27 SP:2C
8FA7  CA       DEX                              A:00 X:0B Y:05 P:27 SP:2C
8FA8  88       DEY                              A:00 X:0A Y:05 P:25 SP:2C
8FA9  10 F6    BPL BPL #$F6                     A:00 X:0A Y:04 P:25 SP:2C
8FA1  BD DD 07 LDA LDA $07DD,X                  A:00 X:0A Y:04 P:25 SP:2C

<L005>  occurrences: 138  block_size:3  repeated_instances:2
sample block:
8FAF  BD DD 07 LDA LDA $07DD,X                  A:00 X:06 Y:00 P:27 SP:2C
8FB2  99 D7 07 STA STA $07D7,Y                  A:00 X:06 Y:00 P:27 SP:2C
8FB5  E8       INX                              A:00 X:06 Y:00 P:27 SP:2C

<L016>  occurrences: 50  block_size:4  repeated_instances:3
sample block:
810E  BD 80 07 LDA LDA $0780,X                  A:00 X:14 Y:06 P:24 SP:2E
8111  F0 03    BEQ BEQ #$03                     A:00 X:14 Y:06 P:26 SP:2E
8116  CA       DEX                              A:00 X:14 Y:06 P:26 SP:2E
8117  10 F5    BPL BPL #$F5                     A:00 X:13 Y:06 P:24 SP:2E

<L015>  occurrences: 51  block_size:4  repeated_instances:3
sample block:
8131  7E A7 07 ROR ROR $07A7,X                  A:00 X:00 Y:07 P:26 SP:2E
8134  E8       INX                              A:00 X:00 Y:07 P:25 SP:2E
8135  88       DEY                              A:00 X:01 Y:07 P:25 SP:2E
8136  D0 F9    BNE BNE #$F9                     A:00 X:01 Y:06 P:25 SP:2E

<L017>  occurrences: 50  block_size:1  repeated_instances:3
sample block:
[8140  29 40    AND AND #$40                     A:40 X:07 Y:00 P:24 SP:2E ; 8142  D0 F9    BNE BNE #$F9                     A:40 X:07 Y:00 P:24 SP:2E ; 813D  AD 02 20 LDA LDA $2002                    A:40 X:07 Y:00 P:24 SP:2E ; 8140  29 40    AND AND #$40                     A:40 X:07 Y:00 P:24 SP:2E ; 8142  D0 F9    BNE BNE #$F9                     A:40 X:07 Y:00 P:24 SP:2E ; 813D  AD 02 20 LDA LDA $2002                    A:40 X:07 Y:00 P:24 SP:2E ; 8140  29 40    AND AND #$40                     A:40 X:07 Y:00 P:24 SP:2E ; 8142  D0 F9    BNE BNE #$F9                     A:40 X:07 Y:00 P:24 SP:2E ; 813D  AD 02 20 LDA LDA $2002                    A:40 X:07 Y:00 P:24 SP:2E] ×19

<L048>  occurrences: 8  block_size:2  repeated_instances:2
sample block:
822A  C8       INY                              A:F8 X:07 Y:04 P:A4 SP:2C
822B  C8       INY                              A:F8 X:07 Y:05 P:24 SP:2C

<L001>  occurrences: 791  block_size:1  repeated_instances:3
sample block:
81CB  85 00    STA STA $00                      A:28 X:07 Y:01 P:24 SP:2C

<L055>  occurrences: 6  block_size:10  repeated_instances:4
sample block:
81D2  C5 00    CMP CMP $00                      A:84 X:0E Y:01 P:A4 SP:2C
81D4  90 0F    BCC BCC #$0F                     A:84 X:0E Y:01 P:25 SP:2C
81D6  AC E0 06 LDY LDY $06E0                    A:84 X:0E Y:01 P:25 SP:2C
81D9  18       CLC                              A:84 X:0E Y:01 P:25 SP:2C
81DA  79 E1 06 ADC ADC $06E1,Y                  A:84 X:0E Y:01 P:24 SP:2C
81DD  90 03    BCC BCC #$03                     A:CC X:0E Y:01 P:A4 SP:2C
81E2  9D E4 06 STA STA $06E4,X                  A:CC X:0E Y:01 P:A4 SP:2C
81E5  CA       DEX                              A:CC X:0E Y:01 P:A4 SP:2C
81E6  10 E7    BPL BPL #$E7                     A:CC X:0D Y:01 P:24 SP:2C
81CF  BD E4 06 LDA LDA $06E4,X                  A:CC X:0D Y:01 P:24 SP:2C

<L045>  occurrences: 11  block_size:10  repeated_instances:4
sample block:
81E5  CA       DEX                              A:24 X:0A Y:01 P:E4 SP:2C
81E6  10 E7    BPL BPL #$E7                     A:24 X:09 Y:01 P:64 SP:2C
81CF  BD E4 06 LDA LDA $06E4,X                  A:24 X:09 Y:01 P:64 SP:2C
81D2  C5 00    CMP CMP $00                      A:68 X:09 Y:01 P:64 SP:2C
81D4  90 0F    BCC BCC #$0F                     A:68 X:09 Y:01 P:65 SP:2C
81D6  AC E0 06 LDY LDY $06E0                    A:68 X:09 Y:01 P:65 SP:2C
81D9  18       CLC                              A:68 X:09 Y:01 P:65 SP:2C
81DA  79 E1 06 ADC ADC $06E1,Y                  A:68 X:09 Y:01 P:64 SP:2C
81DD  90 03    BCC BCC #$03                     A:B0 X:09 Y:01 P:E4 SP:2C
81E2  9D E4 06 STA STA $06E4,X                  A:B0 X:09 Y:01 P:E4 SP:2C

<L051>  occurrences: 7  block_size:12  repeated_instances:3
sample block:
81E5  CA       DEX                              A:70 X:06 Y:01 P:24 SP:2C
81E6  10 E7    BPL BPL #$E7                     A:70 X:05 Y:01 P:24 SP:2C
81CF  BD E4 06 LDA LDA $06E4,X                  A:70 X:05 Y:01 P:24 SP:2C
81D2  C5 00    CMP CMP $00                      A:E8 X:05 Y:01 P:A4 SP:2C
81D4  90 0F    BCC BCC #$0F                     A:E8 X:05 Y:01 P:A5 SP:2C
81D6  AC E0 06 LDY LDY $06E0                    A:E8 X:05 Y:01 P:A5 SP:2C
81D9  18       CLC                              A:E8 X:05 Y:01 P:25 SP:2C
81DA  79 E1 06 ADC ADC $06E1,Y                  A:E8 X:05 Y:01 P:24 SP:2C
81DD  90 03    BCC BCC #$03                     A:30 X:05 Y:01 P:25 SP:2C
81DF  18       CLC                              A:30 X:05 Y:01 P:25 SP:2C
81E0  65 00    ADC ADC $00                      A:30 X:05 Y:01 P:24 SP:2C
81E2  9D E4 06 STA STA $06E4,X                  A:58 X:05 Y:01 P:24 SP:2C

<L045>  occurrences: 11  block_size:10  repeated_instances:2
sample block:
81E5  CA       DEX                              A:28 X:03 Y:01 P:24 SP:2C
81E6  10 E7    BPL BPL #$E7                     A:28 X:02 Y:01 P:24 SP:2C
81CF  BD E4 06 LDA LDA $06E4,X                  A:28 X:02 Y:01 P:24 SP:2C
81D2  C5 00    CMP CMP $00                      A:A0 X:02 Y:01 P:A4 SP:2C
81D4  90 0F    BCC BCC #$0F                     A:A0 X:02 Y:01 P:25 SP:2C
81D6  AC E0 06 LDY LDY $06E0                    A:A0 X:02 Y:01 P:25 SP:2C
81D9  18       CLC                              A:A0 X:02 Y:01 P:25 SP:2C
81DA  79 E1 06 ADC ADC $06E1,Y                  A:A0 X:02 Y:01 P:24 SP:2C
81DD  90 03    BCC BCC #$03                     A:E8 X:02 Y:01 P:A4 SP:2C
81E2  9D E4 06 STA STA $06E4,X                  A:E8 X:02 Y:01 P:A4 SP:2C

<L001>  occurrences: 791  block_size:1  repeated_instances:3
sample block:
81EB  E8       INX                              A:04 X:01 Y:01 P:24 SP:2C

<L001>  occurrences: 791  block_size:1  repeated_instances:2
sample block:
81FC  9D F1 06 STA STA $06F1,X                  A:88 X:08 Y:02 P:A4 SP:2C

<L001>  occurrences: 791  block_size:1  repeated_instances:3
sample block:
820B  CA       DEX                              A:98 X:08 Y:02 P:A4 SP:2C

<L001>  occurrences: 791  block_size:1  repeated_instances:2
sample block:
81FC  9D F1 06 STA STA $06F1,X                  A:70 X:05 Y:01 P:24 SP:2C

<L001>  occurrences: 791  block_size:1  repeated_instances:3
sample block:
820B  CA       DEX                              A:80 X:05 Y:01 P:E4 SP:2C

<L001>  occurrences: 791  block_size:1  repeated_instances:2
sample block:
81FC  9D F1 06 STA STA $06F1,X                  A:58 X:02 Y:00 P:64 SP:2C

<L001>  occurrences: 791  block_size:1  repeated_instances:3
sample block:
820B  CA       DEX                              A:68 X:02 Y:00 P:24 SP:2C

<L017>  occurrences: 50  block_size:1  repeated_instances:2
sample block:
[8153  29 40    AND AND #$40                     A:00 X:FF Y:FF P:26 SP:2E ; 8155  F0 F9    BEQ BEQ #$F9                     A:00 X:FF Y:FF P:26 SP:2E ; 8150  AD 02 20 LDA LDA $2002                    A:00 X:FF Y:FF P:26 SP:2E ; 8153  29 40    AND AND #$40                     A:00 X:FF Y:FF P:26 SP:2E ; 8155  F0 F9    BEQ BEQ #$F9                     A:00 X:FF Y:FF P:26 SP:2E ; 8150  AD 02 20 LDA LDA $2002                    A:00 X:FF Y:FF P:26 SP:2E ; 8153  29 40    AND AND #$40                     A:00 X:FF Y:FF P:26 SP:2E ; 8155  F0 F9    BEQ BEQ #$F9                     A:00 X:FF Y:FF P:26 SP:2E ; 8150  AD 02 20 LDA LDA $2002                    A:00 X:FF Y:FF P:26 SP:2E] ×953

<L079>  occurrences: 2  block_size:5  repeated_instances:2
sample block:
8155  F0 F9    BEQ BEQ #$F9                     A:00 X:FF Y:FF P:26 SP:2E
8150  AD 02 20 LDA LDA $2002                    A:00 X:FF Y:FF P:26 SP:2E
8153  29 40    AND AND #$40                     A:80 X:FF Y:FF P:A4 SP:2E
[8155  F0 F9    BEQ BEQ #$F9                     A:00 X:FF Y:FF P:26 SP:2E ; 8150  AD 02 20 LDA LDA $2002                    A:00 X:FF Y:FF P:26 SP:2E ; 8153  29 40    AND AND #$40                     A:00 X:FF Y:FF P:26 SP:2E ; 8155  F0 F9    BEQ BEQ #$F9                     A:00 X:FF Y:FF P:26 SP:2E ; 8150  AD 02 20 LDA LDA $2002                    A:00 X:FF Y:FF P:26 SP:2E ; 8153  29 40    AND AND #$40                     A:00 X:FF Y:FF P:26 SP:2E ; 8155  F0 F9    BEQ BEQ #$F9                     A:00 X:FF Y:FF P:26 SP:2E ; 8150  AD 02 20 LDA LDA $2002                    A:00 X:FF Y:FF P:26 SP:2E ; 8153  29 40    AND AND #$40                     A:00 X:FF Y:FF P:26 SP:2E] ×1102
[8155  F0 F9    BEQ BEQ #$F9                     A:00 X:FF Y:FF P:26 SP:2E ; 8150  AD 02 20 LDA LDA $2002                    A:00 X:FF Y:FF P:26 SP:2E ; 8153  29 40    AND AND #$40                     A:00 X:FF Y:FF P:26 SP:2E] ×2

<L059>  occurrences: 4  block_size:4  repeated_instances:2
sample block:
8159  88       DEY                              A:40 X:FF Y:14 P:24 SP:2E
815A  D0 FD    BNE BNE #$FD                     A:40 X:FF Y:13 P:24 SP:2E
8159  88       DEY                              A:40 X:FF Y:13 P:24 SP:2E
815A  D0 FD    BNE BNE #$FD                     A:40 X:FF Y:12 P:24 SP:2E

<L023>  occurrences: 34  block_size:2  repeated_instances:2
sample block:
815C  AD 3F 07 LDA LDA $073F                    A:40 X:FF Y:00 P:26 SP:2E
815F  8D 05 20 STA STA $2005                    A:00 X:FF Y:00 P:26 SP:2E

<L006>  occurrences: 114  block_size:2  repeated_instances:2
sample block:
8E06  68       PLA                              A:00 X:FF Y:00 P:26 SP:29
8E07  85 04    STA STA $04                      A:17 X:FF Y:00 P:24 SP:2A

<L007>  occurrences: 114  block_size:3  repeated_instances:2
sample block:
8E0C  C8       INY                              A:82 X:FF Y:00 P:A4 SP:2B
8E0D  B1 04    LDA LDA ($04),Y                  A:82 X:FF Y:01 P:24 SP:2B
8E0F  85 06    STA STA $06                      A:31 X:FF Y:01 P:24 SP:2B

<L006>  occurrences: 114  block_size:2  repeated_instances:2
sample block:
8E06  68       PLA                              A:06 X:FF Y:06 P:24 SP:29
8E07  85 04    STA STA $04                      A:36 X:FF Y:06 P:24 SP:2A

<L007>  occurrences: 114  block_size:3  repeated_instances:2
sample block:
8E0C  C8       INY                              A:82 X:FF Y:06 P:A4 SP:2B
8E0D  B1 04    LDA LDA ($04),Y                  A:82 X:FF Y:07 P:24 SP:2B
8E0F  85 06    STA STA $06                      A:45 X:FF Y:07 P:24 SP:2B

<L001>  occurrences: 791  block_size:1  repeated_instances:2
sample block:
82BB  A9 00    LDA LDA #$00                     A:00 X:00 Y:00 P:26 SP:2B

<L002>  occurrences: 396  block_size:2  repeated_instances:2
sample block:
AEEA  AE 53 07 LDX LDX $0753                    A:00 X:00 Y:00 P:26 SP:29
AEED  BD FC 06 LDA LDA $06FC,X                  A:00 X:00 Y:00 P:26 SP:29

<L006>  occurrences: 114  block_size:2  repeated_instances:2
sample block:
8E06  68       PLA                              A:0E X:00 Y:0E P:24 SP:25
8E07  85 04    STA STA $04                      A:4E X:00 Y:0E P:24 SP:26

<L007>  occurrences: 114  block_size:3  repeated_instances:2
sample block:
8E0C  C8       INY                              A:B0 X:00 Y:0E P:A4 SP:27
8E0D  B1 04    LDA LDA ($04),Y                  A:B0 X:00 Y:0F P:24 SP:27
8E0F  85 06    STA STA $06                      A:69 X:00 Y:0F P:24 SP:27

<L080>  occurrences: 2  block_size:2  repeated_instances:2
sample block:
B0D3  A9 08    LDA LDA #$08                     A:02 X:00 Y:B0 P:A4 SP:27
B0D5  85 0E    STA STA $0E                      A:08 X:00 Y:B0 P:24 SP:27

<L001>  occurrences: 791  block_size:1  repeated_instances:3
sample block:
B0DB  4A       LSR A                            A:01 X:00 Y:B0 P:24 SP:27

<L002>  occurrences: 396  block_size:2  repeated_instances:2
sample block:
AEF6  AD 72 07 LDA LDA $0772                    A:00 X:00 Y:B0 P:27 SP:29
AEF9  C9 03    CMP CMP #$03                     A:03 X:00 Y:B0 P:25 SP:29

<L001>  occurrences: 791  block_size:1  repeated_instances:3
sample block:
AF01  A2 00    LDX LDX #$00                     A:01 X:00 Y:B0 P:24 SP:29

<L001>  occurrences: 791  block_size:1  repeated_instances:2
sample block:
C0CC  AD 45 07 LDA LDA $0745                    A:00 X:00 Y:B0 P:A4 SP:27

<L017>  occurrences: 50  block_size:1  repeated_instances:2
sample block:
C14B  D0 03    BNE BNE #$03                     A:6B X:00 Y:03 P:24 SP:27

<L001>  occurrences: 791  block_size:1  repeated_instances:2
sample block:
C1AB  AD 3A 07 LDA LDA $073A                    A:0B X:00 Y:03 P:A4 SP:27

<L002>  occurrences: 396  block_size:2  repeated_instances:2
sample block:
C1BB  ED 1B 07 SBC SBC $071B                    A:01 X:00 Y:03 P:24 SP:27
C1BE  B0 0B    BCS BCS #$0B                     A:00 X:00 Y:03 P:27 SP:27

<L001>  occurrences: 791  block_size:1  repeated_instances:3
sample block:
84CA  90 05    BCC BCC #$05                     A:36 X:00 Y:03 P:25 SP:27

<L001>  occurrences: 791  block_size:1  repeated_instances:2
sample block:
84DB  DE 2C 01 DEC DEC $012C,X                  A:77 X:00 Y:0B P:25 SP:27

<L029>  occurrences: 24  block_size:4  repeated_instances:2
sample block:
8505  C9 12    CMP CMP #$12                     A:00 X:00 Y:D0 P:27 SP:27
8507  F0 22    BEQ BEQ #$22                     A:00 X:00 Y:D0 P:A4 SP:27
8509  C9 0D    CMP CMP #$0D                     A:00 X:00 Y:D0 P:A4 SP:27
850B  F0 1E    BEQ BEQ #$1E                     A:00 X:00 Y:D0 P:A4 SP:27

<L013>  occurrences: 64  block_size:1  repeated_instances:2
sample block:
E5C1  99 04 02 STA STA $0204,Y                  A:F6 X:00 Y:A0 P:A5 SP:25

<L013>  occurrences: 64  block_size:1  repeated_instances:2
sample block:
854D  99 02 02 STA STA $0202,Y                  A:02 X:00 Y:A0 P:25 SP:27

<L030>  occurrences: 24  block_size:2  repeated_instances:2
sample block:
8558  BD 9F 84 LDA LDA $849F,X                  A:16 X:16 Y:A0 P:24 SP:27
855B  99 01 02 STA STA $0201,Y                  A:FD X:16 Y:A0 P:A4 SP:27

<L002>  occurrences: 396  block_size:2  repeated_instances:2
sample block:
AF0B  E8       INX                              A:FE X:00 Y:A0 P:26 SP:29
AF0C  E0 06    CPX CPX #$06                     A:FE X:01 Y:A0 P:24 SP:29

<L001>  occurrences: 791  block_size:1  repeated_instances:2
sample block:
C0CC  AD 45 07 LDA LDA $0745                    A:00 X:01 Y:A0 P:A4 SP:27

<L017>  occurrences: 50  block_size:1  repeated_instances:2
sample block:
C14B  D0 03    BNE BNE #$03                     A:6B X:01 Y:03 P:24 SP:27

<L001>  occurrences: 791  block_size:1  repeated_instances:2
sample block:
C1AB  AD 3A 07 LDA LDA $073A                    A:0B X:01 Y:03 P:A4 SP:27

<L002>  occurrences: 396  block_size:2  repeated_instances:2
sample block:
C1BB  ED 1B 07 SBC SBC $071B                    A:01 X:01 Y:03 P:24 SP:27
C1BE  B0 0B    BCS BCS #$0B                     A:00 X:01 Y:03 P:27 SP:27

<L001>  occurrences: 791  block_size:1  repeated_instances:3
sample block:
84CA  90 05    BCC BCC #$05                     A:FE X:01 Y:03 P:A5 SP:27

<L001>  occurrences: 791  block_size:1  repeated_instances:2
sample block:
84DB  DE 2C 01 DEC DEC $012C,X                  A:81 X:01 Y:0B P:A5 SP:27

<L029>  occurrences: 24  block_size:4  repeated_instances:2
sample block:
8505  C9 12    CMP CMP #$12                     A:00 X:01 Y:E8 P:27 SP:27
8507  F0 22    BEQ BEQ #$22                     A:00 X:01 Y:E8 P:A4 SP:27
8509  C9 0D    CMP CMP #$0D                     A:00 X:01 Y:E8 P:A4 SP:27
850B  F0 1E    BEQ BEQ #$1E                     A:00 X:01 Y:E8 P:A4 SP:27

<L013>  occurrences: 64  block_size:1  repeated_instances:2
sample block:
E5C1  99 04 02 STA STA $0204,Y                  A:2D X:01 Y:A0 P:25 SP:25

<L013>  occurrences: 64  block_size:1  repeated_instances:2
sample block:
854D  99 02 02 STA STA $0202,Y                  A:02 X:01 Y:A0 P:25 SP:27

<L030>  occurrences: 24  block_size:2  repeated_instances:2
sample block:
8558  BD 9F 84 LDA LDA $849F,X                  A:16 X:16 Y:A0 P:24 SP:27
855B  99 01 02 STA STA $0201,Y                  A:FD X:16 Y:A0 P:A4 SP:27

<L002>  occurrences: 396  block_size:2  repeated_instances:2
sample block:
AF0B  E8       INX                              A:FE X:01 Y:A0 P:24 SP:29
AF0C  E0 06    CPX CPX #$06                     A:FE X:02 Y:A0 P:24 SP:29

<L001>  occurrences: 791  block_size:1  repeated_instances:2
sample block:
C0CC  AD 45 07 LDA LDA $0745                    A:00 X:02 Y:A0 P:A4 SP:27

<L017>  occurrences: 50  block_size:1  repeated_instances:2
sample block:
C14B  D0 03    BNE BNE #$03                     A:6B X:02 Y:03 P:24 SP:27

<L001>  occurrences: 791  block_size:1  repeated_instances:2
sample block:
C1AB  AD 3A 07 LDA LDA $073A                    A:0B X:02 Y:03 P:A4 SP:27

<L002>  occurrences: 396  block_size:2  repeated_instances:2
sample block:
C1BB  ED 1B 07 SBC SBC $071B                    A:01 X:02 Y:03 P:24 SP:27
C1BE  B0 0B    BCS BCS #$0B                     A:00 X:02 Y:03 P:27 SP:27

<L001>  occurrences: 791  block_size:1  repeated_instances:3
sample block:
84CA  90 05    BCC BCC #$05                     A:FF X:02 Y:03 P:A5 SP:27

<L001>  occurrences: 791  block_size:1  repeated_instances:2
sample block:
84DB  DE 2C 01 DEC DEC $012C,X                  A:10 X:02 Y:0B P:25 SP:27

<L029>  occurrences: 24  block_size:4  repeated_instances:2
sample block:
8505  C9 12    CMP CMP #$12                     A:00 X:02 Y:28 P:26 SP:27
8507  F0 22    BEQ BEQ #$22                     A:00 X:02 Y:28 P:A4 SP:27
8509  C9 0D    CMP CMP #$0D                     A:00 X:02 Y:28 P:A4 SP:27
850B  F0 1E    BEQ BEQ #$1E                     A:00 X:02 Y:28 P:A4 SP:27

<L013>  occurrences: 64  block_size:1  repeated_instances:2
sample block:
E5C1  99 04 02 STA STA $0204,Y                  A:F5 X:02 Y:A0 P:A5 SP:25

<L013>  occurrences: 64  block_size:1  repeated_instances:2
sample block:
854D  99 02 02 STA STA $0202,Y                  A:02 X:02 Y:A0 P:24 SP:27

<L030>  occurrences: 24  block_size:2  repeated_instances:2
sample block:
8558  BD 9F 84 LDA LDA $849F,X                  A:16 X:16 Y:A0 P:24 SP:27
855B  99 01 02 STA STA $0201,Y                  A:FD X:16 Y:A0 P:A4 SP:27

<L002>  occurrences: 396  block_size:2  repeated_instances:2
sample block:
AF0B  E8       INX                              A:FE X:02 Y:A0 P:24 SP:29
AF0C  E0 06    CPX CPX #$06                     A:FE X:03 Y:A0 P:24 SP:29

<L001>  occurrences: 791  block_size:1  repeated_instances:2
sample block:
C0CC  AD 45 07 LDA LDA $0745                    A:00 X:03 Y:A0 P:A4 SP:27

<L017>  occurrences: 50  block_size:1  repeated_instances:2
sample block:
C14B  D0 03    BNE BNE #$03                     A:6B X:03 Y:03 P:24 SP:27

<L001>  occurrences: 791  block_size:1  repeated_instances:2
sample block:
C1AB  AD 3A 07 LDA LDA $073A                    A:0B X:03 Y:03 P:A4 SP:27

<L002>  occurrences: 396  block_size:2  repeated_instances:2
sample block:
C1BB  ED 1B 07 SBC SBC $071B                    A:01 X:03 Y:03 P:24 SP:27
C1BE  B0 0B    BCS BCS #$0B                     A:00 X:03 Y:03 P:27 SP:27

<L001>  occurrences: 791  block_size:1  repeated_instances:3
sample block:
84CA  90 05    BCC BCC #$05                     A:36 X:03 Y:03 P:25 SP:27

<L001>  occurrences: 791  block_size:1  repeated_instances:2
sample block:
84DB  DE 2C 01 DEC DEC $012C,X                  A:26 X:03 Y:0B P:25 SP:27

<L029>  occurrences: 24  block_size:4  repeated_instances:2
sample block:
8505  C9 12    CMP CMP #$12                     A:00 X:03 Y:40 P:26 SP:27
8507  F0 22    BEQ BEQ #$22                     A:00 X:03 Y:40 P:A4 SP:27
8509  C9 0D    CMP CMP #$0D                     A:00 X:03 Y:40 P:A4 SP:27
850B  F0 1E    BEQ BEQ #$1E                     A:00 X:03 Y:40 P:A4 SP:27

<L013>  occurrences: 64  block_size:1  repeated_instances:2
sample block:
E5C1  99 04 02 STA STA $0204,Y                  A:F6 X:03 Y:A0 P:A5 SP:25

<L013>  occurrences: 64  block_size:1  repeated_instances:2
sample block:
854D  99 02 02 STA STA $0202,Y                  A:02 X:03 Y:A0 P:25 SP:27

<L030>  occurrences: 24  block_size:2  repeated_instances:2
sample block:
8558  BD 9F 84 LDA LDA $849F,X                  A:16 X:16 Y:A0 P:24 SP:27
855B  99 01 02 STA STA $0201,Y                  A:FD X:16 Y:A0 P:A4 SP:27

<L002>  occurrences: 396  block_size:2  repeated_instances:2
sample block:
AF0B  E8       INX                              A:FE X:03 Y:A0 P:24 SP:29
AF0C  E0 06    CPX CPX #$06                     A:FE X:04 Y:A0 P:24 SP:29

<L001>  occurrences: 791  block_size:1  repeated_instances:2
sample block:
C0CC  AD 45 07 LDA LDA $0745                    A:00 X:04 Y:A0 P:A4 SP:27

<L017>  occurrences: 50  block_size:1  repeated_instances:2
sample block:
C14B  D0 03    BNE BNE #$03                     A:6B X:04 Y:03 P:24 SP:27

<L001>  occurrences: 791  block_size:1  repeated_instances:2
sample block:
C1AB  AD 3A 07 LDA LDA $073A                    A:0B X:04 Y:03 P:A4 SP:27

<L002>  occurrences: 396  block_size:2  repeated_instances:2
sample block:
C1BB  ED 1B 07 SBC SBC $071B                    A:01 X:04 Y:03 P:24 SP:27
C1BE  B0 0B    BCS BCS #$0B                     A:00 X:04 Y:03 P:27 SP:27

<L001>  occurrences: 791  block_size:1  repeated_instances:3
sample block:
84CA  90 05    BCC BCC #$05                     A:FE X:04 Y:03 P:A5 SP:27

<L001>  occurrences: 791  block_size:1  repeated_instances:2
sample block:
84DB  DE 2C 01 DEC DEC $012C,X                  A:F0 X:04 Y:0B P:A5 SP:27

<L029>  occurrences: 24  block_size:4  repeated_instances:2
sample block:
8505  C9 12    CMP CMP #$12                     A:00 X:04 Y:58 P:27 SP:27
8507  F0 22    BEQ BEQ #$22                     A:00 X:04 Y:58 P:A4 SP:27
8509  C9 0D    CMP CMP #$0D                     A:00 X:04 Y:58 P:A4 SP:27
850B  F0 1E    BEQ BEQ #$1E                     A:00 X:04 Y:58 P:A4 SP:27

<L013>  occurrences: 64  block_size:1  repeated_instances:2
sample block:
E5C1  99 04 02 STA STA $0204,Y                  A:2D X:04 Y:A0 P:25 SP:25

<L013>  occurrences: 64  block_size:1  repeated_instances:2
sample block:
854D  99 02 02 STA STA $0202,Y                  A:02 X:04 Y:A0 P:25 SP:27

<L030>  occurrences: 24  block_size:2  repeated_instances:2
sample block:
8558  BD 9F 84 LDA LDA $849F,X                  A:16 X:16 Y:A0 P:24 SP:27
855B  99 01 02 STA STA $0201,Y                  A:FD X:16 Y:A0 P:A4 SP:27

<L002>  occurrences: 396  block_size:2  repeated_instances:2
sample block:
AF0B  E8       INX                              A:FE X:04 Y:A0 P:24 SP:29
AF0C  E0 06    CPX CPX #$06                     A:FE X:05 Y:A0 P:24 SP:29

<L001>  occurrences: 791  block_size:1  repeated_instances:2
sample block:
C0CC  AD 45 07 LDA LDA $0745                    A:00 X:05 Y:A0 P:A4 SP:27

<L017>  occurrences: 50  block_size:1  repeated_instances:2
sample block:
C14B  D0 03    BNE BNE #$03                     A:6B X:05 Y:03 P:24 SP:27

<L001>  occurrences: 791  block_size:1  repeated_instances:3
sample block:
84CA  90 05    BCC BCC #$05                     A:FF X:05 Y:04 P:A5 SP:27

<L001>  occurrences: 791  block_size:1  repeated_instances:2
sample block:
84DB  DE 2C 01 DEC DEC $012C,X                  A:FF X:05 Y:0B P:A5 SP:27

<L029>  occurrences: 24  block_size:4  repeated_instances:2
sample block:
8505  C9 12    CMP CMP #$12                     A:00 X:05 Y:70 P:27 SP:27
8507  F0 22    BEQ BEQ #$22                     A:00 X:05 Y:70 P:A4 SP:27
8509  C9 0D    CMP CMP #$0D                     A:00 X:05 Y:70 P:A4 SP:27
850B  F0 1E    BEQ BEQ #$1E                     A:00 X:05 Y:70 P:A4 SP:27

<L013>  occurrences: 64  block_size:1  repeated_instances:2
sample block:
E5C1  99 04 02 STA STA $0204,Y                  A:F5 X:05 Y:A0 P:A5 SP:25

<L013>  occurrences: 64  block_size:1  repeated_instances:2
sample block:
854D  99 02 02 STA STA $0202,Y                  A:02 X:05 Y:A0 P:24 SP:27

<L030>  occurrences: 24  block_size:2  repeated_instances:2
sample block:
8558  BD 9F 84 LDA LDA $849F,X                  A:16 X:16 Y:A0 P:24 SP:27
855B  99 01 02 STA STA $0201,Y                  A:FD X:16 Y:A0 P:A4 SP:27

<L002>  occurrences: 396  block_size:2  repeated_instances:2
sample block:
AF0B  E8       INX                              A:FE X:05 Y:A0 P:24 SP:29
AF0C  E0 06    CPX CPX #$06                     A:FE X:06 Y:A0 P:24 SP:29

<L060>  occurrences: 4  block_size:1  repeated_instances:2
sample block:
F1C2  20 D7 F1 JSR JSR $F1D7                    A:00 X:00 Y:00 P:27 SP:26

<L001>  occurrences: 791  block_size:1  repeated_instances:3
sample block:
F1FA  B9 1C 07 LDA LDA $071C,Y                  A:00 X:00 Y:01 P:25 SP:22

<L001>  occurrences: 791  block_size:1  repeated_instances:3
sample block:
F1FA  B9 1C 07 LDA LDA $071C,Y                  A:00 X:00 Y:00 P:27 SP:22

<L001>  occurrences: 791  block_size:1  repeated_instances:3
sample block:
F1DA  4A       LSR A                            A:00 X:00 Y:FF P:A5 SP:24

<L041>  occurrences: 12  block_size:1  repeated_instances:2
sample block:
F1C5  0A       ASL A                            A:00 X:00 Y:FF P:A5 SP:26

<L002>  occurrences: 396  block_size:2  repeated_instances:2
sample block:
F1CB  85 00    STA STA $00                      A:00 X:00 Y:FF P:26 SP:26
F1CD  68       PLA                              A:00 X:00 Y:FF P:26 SP:26

<L039>  occurrences: 14  block_size:9  repeated_instances:2
sample block:
AF16  20 E9 EE JSR JSR $EEE9                    A:28 X:05 Y:00 P:25 SP:29
EEE9  AD 9E 07 LDA LDA $079E                    A:28 X:05 Y:00 P:25 SP:27
EEEC  F0 05    BEQ BEQ #$05                     A:00 X:05 Y:00 P:27 SP:27
EEF3  A5 0E    LDA LDA $0E                      A:00 X:05 Y:00 P:27 SP:27
EEF5  C9 0B    CMP CMP #$0B                     A:08 X:05 Y:00 P:25 SP:27
EEF7  F0 47    BEQ BEQ #$47                     A:08 X:05 Y:00 P:A4 SP:27
EEF9  AD 0B 07 LDA LDA $070B                    A:08 X:05 Y:00 P:A4 SP:27
EEFC  D0 3C    BNE BNE #$3C                     A:00 X:05 Y:00 P:26 SP:27
EEFE  AC 04 07 LDY LDY $0704                    A:00 X:05 Y:00 P:26 SP:27

<L032>  occurrences: 22  block_size:11  repeated_instances:2
sample block:
EF37  4C 45 EF JMP JMP $EF45                    A:B8 X:05 Y:0A P:A4 SP:27
EF45  8D D5 06 STA STA $06D5                    A:B8 X:05 Y:0A P:A4 SP:27
EF48  A9 04    LDA LDA #$04                     A:B8 X:05 Y:0A P:A4 SP:27
EF4A  20 BE EF JSR JSR $EFBE                    A:04 X:05 Y:0A P:24 SP:27
EFBE  85 07    STA STA $07                      A:04 X:05 Y:0A P:24 SP:25
EFC0  AD AD 03 LDA LDA $03AD                    A:04 X:05 Y:0A P:24 SP:25
EFC3  8D 55 07 STA STA $0755                    A:28 X:05 Y:0A P:24 SP:25
EFC6  85 05    STA STA $05                      A:28 X:05 Y:0A P:24 SP:25
EFC8  AD B8 03 LDA LDA $03B8                    A:28 X:05 Y:0A P:24 SP:25
EFCB  85 02    STA STA $02                      A:B0 X:05 Y:0A P:A4 SP:25
EFCD  A5 33    LDA LDA $33                      A:B0 X:05 Y:0A P:A4 SP:25

<L024>  occurrences: 34  block_size:1  repeated_instances:2
sample block:
F284  4A       LSR A                            A:01 X:B8 Y:04 P:24 SP:23

<L036>  occurrences: 16  block_size:2  repeated_instances:2
sample block:
F296  99 01 02 STA STA $0201,Y                  A:FC X:B8 Y:04 P:A4 SP:23
F299  A5 01    LDA LDA $01                      A:FC X:B8 Y:04 P:A4 SP:23

<L013>  occurrences: 64  block_size:1  repeated_instances:2
sample block:
F2A2  99 02 02 STA STA $0202,Y                  A:00 X:B8 Y:04 P:26 SP:23

<L001>  occurrences: 791  block_size:1  repeated_instances:2
sample block:
F2AA  99 00 02 STA STA $0200,Y                  A:B0 X:B8 Y:04 P:A4 SP:23

<L001>  occurrences: 791  block_size:1  repeated_instances:3
sample block:
F2BB  A5 02    LDA LDA $02                      A:30 X:B8 Y:04 P:24 SP:23

<L028>  occurrences: 25  block_size:1  repeated_instances:2
sample block:
F2C7  E8       INX                              A:0C X:B8 Y:0C P:24 SP:23

<L018>  occurrences: 46  block_size:4  repeated_instances:2
sample block:
EFE7  C6 07    DEC DEC $07                      A:0C X:BA Y:0C P:A4 SP:25
EFE9  D0 F1    BNE BNE #$F1                     A:0C X:BA Y:0C P:24 SP:25
EFDC  BD 17 EE LDA LDA $EE17,X                  A:0C X:BA Y:0C P:24 SP:25
EFDF  85 00    STA STA $00                      A:FC X:BA Y:0C P:A4 SP:25

<L024>  occurrences: 34  block_size:1  repeated_instances:2
sample block:
F284  4A       LSR A                            A:01 X:BA Y:0C P:24 SP:23

<L036>  occurrences: 16  block_size:2  repeated_instances:2
sample block:
F296  99 01 02 STA STA $0201,Y                  A:FC X:BA Y:0C P:A4 SP:23
F299  A5 01    LDA LDA $01                      A:FC X:BA Y:0C P:A4 SP:23

<L013>  occurrences: 64  block_size:1  repeated_instances:2
sample block:
F2A2  99 02 02 STA STA $0202,Y                  A:00 X:BA Y:0C P:26 SP:23

<L001>  occurrences: 791  block_size:1  repeated_instances:2
sample block:
F2AA  99 00 02 STA STA $0200,Y                  A:B8 X:BA Y:0C P:A4 SP:23

<L001>  occurrences: 791  block_size:1  repeated_instances:3
sample block:
F2BB  A5 02    LDA LDA $02                      A:30 X:BA Y:0C P:24 SP:23

<L028>  occurrences: 25  block_size:1  repeated_instances:2
sample block:
F2C7  E8       INX                              A:14 X:BA Y:14 P:24 SP:23

<L018>  occurrences: 46  block_size:4  repeated_instances:2
sample block:
EFE7  C6 07    DEC DEC $07                      A:14 X:BC Y:14 P:A4 SP:25
EFE9  D0 F1    BNE BNE #$F1                     A:14 X:BC Y:14 P:24 SP:25
EFDC  BD 17 EE LDA LDA $EE17,X                  A:14 X:BC Y:14 P:24 SP:25
EFDF  85 00    STA STA $00                      A:3A X:BC Y:14 P:24 SP:25

<L024>  occurrences: 34  block_size:1  repeated_instances:2
sample block:
F284  4A       LSR A                            A:01 X:BC Y:14 P:24 SP:23

<L036>  occurrences: 16  block_size:2  repeated_instances:2
sample block:
F296  99 01 02 STA STA $0201,Y                  A:3A X:BC Y:14 P:24 SP:23
F299  A5 01    LDA LDA $01                      A:3A X:BC Y:14 P:24 SP:23

<L013>  occurrences: 64  block_size:1  repeated_instances:2
sample block:
F2A2  99 02 02 STA STA $0202,Y                  A:00 X:BC Y:14 P:26 SP:23

<L001>  occurrences: 791  block_size:1  repeated_instances:2
sample block:
F2AA  99 00 02 STA STA $0200,Y                  A:C0 X:BC Y:14 P:A4 SP:23

<L001>  occurrences: 791  block_size:1  repeated_instances:3
sample block:
F2BB  A5 02    LDA LDA $02                      A:30 X:BC Y:14 P:24 SP:23

<L028>  occurrences: 25  block_size:1  repeated_instances:2
sample block:
F2C7  E8       INX                              A:1C X:BC Y:1C P:24 SP:23

<L018>  occurrences: 46  block_size:4  repeated_instances:2
sample block:
EFE7  C6 07    DEC DEC $07                      A:1C X:BE Y:1C P:A4 SP:25
EFE9  D0 F1    BNE BNE #$F1                     A:1C X:BE Y:1C P:24 SP:25
EFDC  BD 17 EE LDA LDA $EE17,X                  A:1C X:BE Y:1C P:24 SP:25
EFDF  85 00    STA STA $00                      A:4F X:BE Y:1C P:24 SP:25

<L024>  occurrences: 34  block_size:1  repeated_instances:2
sample block:
F284  4A       LSR A                            A:01 X:BE Y:1C P:24 SP:23

<L036>  occurrences: 16  block_size:2  repeated_instances:2
sample block:
F296  99 01 02 STA STA $0201,Y                  A:4F X:BE Y:1C P:24 SP:23
F299  A5 01    LDA LDA $01                      A:4F X:BE Y:1C P:24 SP:23

<L013>  occurrences: 64  block_size:1  repeated_instances:2
sample block:
F2A2  99 02 02 STA STA $0202,Y                  A:00 X:BE Y:1C P:26 SP:23

<L001>  occurrences: 791  block_size:1  repeated_instances:2
sample block:
F2AA  99 00 02 STA STA $0200,Y                  A:C8 X:BE Y:1C P:A4 SP:23

<L001>  occurrences: 791  block_size:1  repeated_instances:3
sample block:
F2BB  A5 02    LDA LDA $02                      A:30 X:BE Y:1C P:24 SP:23

<L028>  occurrences: 25  block_size:1  repeated_instances:2
sample block:
F2C7  E8       INX                              A:24 X:BE Y:24 P:24 SP:23

<L002>  occurrences: 396  block_size:2  repeated_instances:2
sample block:
EFE7  C6 07    DEC DEC $07                      A:24 X:C0 Y:24 P:A4 SP:25
EFE9  D0 F1    BNE BNE #$F1                     A:24 X:C0 Y:24 P:26 SP:25

<L001>  occurrences: 791  block_size:1  repeated_instances:2
sample block:
F0EC  A5 0E    LDA LDA $0E                      A:24 X:C0 Y:04 P:24 SP:25

<L001>  occurrences: 791  block_size:1  repeated_instances:3
sample block:
EF50  AD 11 07 LDA LDA $0711                    A:40 X:C0 Y:04 P:25 SP:27

<L003>  occurrences: 238  block_size:12  repeated_instances:3
sample block:
EF7D  4A       LSR A                            A:00 X:C0 Y:04 P:27 SP:27
EF7E  4A       LSR A                            A:00 X:C0 Y:04 P:26 SP:27
EF81  85 00    STA STA $00                      A:00 X:C0 Y:04 P:26 SP:27
EF83  A2 03    LDX LDX #$03                     A:00 X:C0 Y:04 P:26 SP:27
EF85  AD E4 06 LDA LDA $06E4                    A:00 X:03 Y:04 P:24 SP:27
EF88  18       CLC                              A:04 X:03 Y:04 P:24 SP:27
EF89  69 18    ADC ADC #$18                     A:04 X:03 Y:04 P:24 SP:27
EF8B  A8       TAY                              A:1C X:03 Y:04 P:24 SP:27
EF8C  A9 F8    LDA LDA #$F8                     A:1C X:03 Y:1C P:24 SP:27
EF8E  46 00    LSR LSR $00                      A:F8 X:03 Y:1C P:A4 SP:27
EF90  90 03    BCC BCC #$03                     A:F8 X:03 Y:1C P:26 SP:27
EF95  98       TYA                              A:F8 X:03 Y:1C P:26 SP:27

<L026>  occurrences: 30  block_size:5  repeated_instances:2
sample block:
EF8E  46 00    LSR LSR $00                      A:F8 X:00 Y:04 P:A5 SP:27
EF90  90 03    BCC BCC #$03                     A:F8 X:00 Y:04 P:26 SP:27
EF95  98       TYA                              A:F8 X:00 Y:04 P:26 SP:27
EF96  38       SEC                              A:04 X:00 Y:04 P:24 SP:27
EF97  E9 08    SBC SBC #$08                     A:04 X:00 Y:04 P:25 SP:27

<L003>  occurrences: 238  block_size:12  repeated_instances:2
sample block:
BED6  86 08    STX STX $08                      A:FC X:01 Y:FC P:24 SP:27
BED8  AD 01 03 LDA LDA $0301                    A:FC X:01 Y:FC P:24 SP:27
BEDB  D0 21    BNE BNE #$21                     A:00 X:01 Y:FC P:26 SP:27
BEDD  BD EC 03 LDA LDA $03EC,X                  A:00 X:01 Y:FC P:26 SP:27
BEE0  F0 1C    BEQ BEQ #$1C                     A:00 X:01 Y:FC P:26 SP:27
BEFE  CA       DEX                              A:00 X:01 Y:FC P:26 SP:27
BEFF  10 D5    BPL BPL #$D5                     A:00 X:00 Y:FC P:26 SP:27
BF01  60       RTS                              A:00 X:FF Y:FC P:A4 SP:27
AF1C  A2 01    LDX LDX #$01                     A:00 X:FF Y:FC P:A4 SP:29
AF1E  86 08    STX STX $08                      A:00 X:01 Y:FC P:24 SP:29
AF20  20 70 BE JSR JSR $BE70                    A:00 X:01 Y:FC P:24 SP:29
BE70  B5 26    LDA LDA $26,X                    A:00 X:01 Y:FC P:24 SP:27

<L039>  occurrences: 14  block_size:9  repeated_instances:2
sample block:
BB98  86 08    STX STX $08                      A:00 X:08 Y:FC P:24 SP:27
BB9A  B5 2A    LDA LDA $2A,X                    A:00 X:08 Y:FC P:24 SP:27
BB9C  F0 56    BEQ BEQ #$56                     A:00 X:08 Y:FC P:26 SP:27
BBF4  CA       DEX                              A:00 X:08 Y:FC P:26 SP:27
BBF5  10 A1    BPL BPL #$A1                     A:00 X:07 Y:FC P:24 SP:27
BB98  86 08    STX STX $08                      A:00 X:07 Y:FC P:24 SP:27
BB9A  B5 2A    LDA LDA $2A,X                    A:00 X:07 Y:FC P:24 SP:27
BB9C  F0 56    BEQ BEQ #$56                     A:00 X:07 Y:FC P:26 SP:27
BBF4  CA       DEX                              A:00 X:07 Y:FC P:26 SP:27

<L001>  occurrences: 791  block_size:1  repeated_instances:2
sample block:
B9CC  AC CC 06 LDY LDY $06CC                    A:80 X:02 Y:FC P:A4 SP:27

<L005>  occurrences: 138  block_size:3  repeated_instances:2
sample block:
B9DA  F0 3E    BEQ BEQ #$3E                     A:00 X:02 Y:00 P:26 SP:27
BA1A  B5 16    LDA LDA $16,X                    A:00 X:02 Y:00 P:26 SP:27
BA1C  C9 33    CMP CMP #$33                     A:00 X:02 Y:00 P:26 SP:27

<L001>  occurrences: 791  block_size:1  repeated_instances:2
sample block:
B9CC  AC CC 06 LDY LDY $06CC                    A:52 X:01 Y:00 P:24 SP:27

<L005>  occurrences: 138  block_size:3  repeated_instances:2
sample block:
B9DA  F0 3E    BEQ BEQ #$3E                     A:00 X:01 Y:02 P:26 SP:27
BA1A  B5 16    LDA LDA $16,X                    A:00 X:01 Y:02 P:26 SP:27
BA1C  C9 33    CMP CMP #$33                     A:00 X:01 Y:02 P:26 SP:27

<L001>  occurrences: 791  block_size:1  repeated_instances:2
sample block:
B9CC  AC CC 06 LDY LDY $06CC                    A:E9 X:00 Y:02 P:A4 SP:27

<L005>  occurrences: 138  block_size:3  repeated_instances:2
sample block:
BA1A  B5 16    LDA LDA $16,X                    A:09 X:00 Y:00 P:25 SP:27
BA1C  C9 33    CMP CMP #$33                     A:00 X:00 Y:00 P:27 SP:27
BA1E  D0 0D    BNE BNE #$0D                     A:00 X:00 Y:00 P:A4 SP:27

<L017>  occurrences: 50  block_size:1  repeated_instances:2
sample block:
89E3  29 07    AND AND #$07                     A:10 X:05 Y:00 P:24 SP:27

<L002>  occurrences: 396  block_size:2  repeated_instances:2
sample block:
89EA  E0 31    CPX CPX #$31                     A:00 X:00 Y:00 P:26 SP:27
89EC  B0 4A    BCS BCS #$4A                     A:00 X:00 Y:00 P:A4 SP:27

<L081>  occurrences: 2  block_size:6  repeated_instances:2
sample block:
89F2  9D 01 03 STA STA $0301,X                  A:3F X:00 Y:00 P:24 SP:27
89F5  E8       INX                              A:3F X:00 Y:00 P:24 SP:27
89F6  C8       INY                              A:3F X:01 Y:00 P:24 SP:27
89F7  C0 08    CPY CPY #$08                     A:3F X:01 Y:01 P:24 SP:27
89F9  90 F4    BCC BCC #$F4                     A:3F X:01 Y:01 P:A4 SP:27
89EF  B9 C9 89 LDA LDA $89C9,Y                  A:3F X:01 Y:01 P:A4 SP:27

<L082>  occurrences: 2  block_size:6  repeated_instances:2
sample block:
89F7  C0 08    CPY CPY #$08                     A:04 X:03 Y:03 P:24 SP:27
89F9  90 F4    BCC BCC #$F4                     A:04 X:03 Y:03 P:A4 SP:27
89EF  B9 C9 89 LDA LDA $89C9,Y                  A:04 X:03 Y:03 P:A4 SP:27
89F2  9D 01 03 STA STA $0301,X                  A:FF X:03 Y:03 P:A4 SP:27
89F5  E8       INX                              A:FF X:03 Y:03 P:A4 SP:27
89F6  C8       INY                              A:FF X:04 Y:03 P:24 SP:27

<L001>  occurrences: 791  block_size:1  repeated_instances:2
sample block:
89FB  AE 00 03 LDX LDX $0300                    A:00 X:08 Y:08 P:27 SP:27

<L041>  occurrences: 12  block_size:1  repeated_instances:2
sample block:
8A05  0A       ASL A                            A:01 X:00 Y:08 P:25 SP:27

<L049>  occurrences: 8  block_size:12  repeated_instances:2
sample block:
8A08  B9 D1 89 LDA LDA $89D1,Y                  A:04 X:00 Y:04 P:24 SP:27
8A0B  9D 04 03 STA STA $0304,X                  A:0F X:00 Y:04 P:24 SP:27
8A0E  C8       INY                              A:0F X:00 Y:04 P:24 SP:27
8A0F  E8       INX                              A:0F X:00 Y:05 P:24 SP:27
8A10  C6 00    DEC DEC $00                      A:0F X:01 Y:05 P:24 SP:27
8A12  10 F4    BPL BPL #$F4                     A:0F X:01 Y:05 P:24 SP:27
8A08  B9 D1 89 LDA LDA $89D1,Y                  A:0F X:01 Y:05 P:24 SP:27
8A0B  9D 04 03 STA STA $0304,X                  A:07 X:01 Y:05 P:24 SP:27
8A0E  C8       INY                              A:07 X:01 Y:05 P:24 SP:27
8A0F  E8       INX                              A:07 X:01 Y:06 P:24 SP:27
8A10  C6 00    DEC DEC $00                      A:07 X:02 Y:06 P:24 SP:27
8A12  10 F4    BPL BPL #$F4                     A:07 X:02 Y:06 P:24 SP:27

<L005>  occurrences: 138  block_size:3  repeated_instances:2
sample block:
AF3B  A5 B5    LDA LDA $B5                      A:01 X:00 Y:00 P:A4 SP:29
AF3D  C9 02    CMP CMP #$02                     A:01 X:00 Y:00 P:24 SP:29
AF3F  10 11    BPL BPL #$11                     A:01 X:00 Y:00 P:A4 SP:29

<L010>  occurrences: 80  block_size:6  repeated_instances:2
sample block:
AF67  A5 0A    LDA LDA $0A                      A:00 X:00 Y:00 P:26 SP:29
AF69  85 0D    STA STA $0D                      A:00 X:00 Y:00 P:26 SP:29
AF6B  A9 00    LDA LDA #$00                     A:00 X:00 Y:00 P:26 SP:29
AF6D  85 0C    STA STA $0C                      A:00 X:00 Y:00 P:26 SP:29
AF6F  AD 73 07 LDA LDA $0773                    A:00 X:00 Y:00 P:26 SP:29
AF72  C9 06    CMP CMP #$06                     A:00 X:00 Y:00 P:26 SP:29

<L027>  occurrences: 27  block_size:1  repeated_instances:3
sample block:
8077  8D 8D 8D STA STA $8D8D                    A:08 X:00 Y:00 P:25 SP:2D

<L026>  occurrences: 30  block_size:5  repeated_instances:2
sample block:
FFF0  19 19 1A ORA ORA $1A19,Y                  A:08 X:00 Y:00 P:25 SP:2A
FFF3  1A       *NOP                             A:3F X:00 Y:00 P:25 SP:2A
FFF4  1C 1D 1D *NOP *NOP $1D1D,X                A:3F X:00 Y:00 P:25 SP:2A
FFF7  1E 1E 1F ASL ASL $1F1E,X                  A:3F X:00 Y:00 P:25 SP:2A
FFFA  82 80    *NOP *NOP #$80                   A:3F X:00 Y:00 P:26 SP:2A


Top Template Tags:
<L001> occurrences: 791 template:
{N0}

<L002> occurrences: 396 template:
{N0}
{N0}

<L003> occurrences: 238 template:
{N0}
{N0}
{N0}
{N0}
{N0}
{N0}
{N0}
{N0}
{N0}
{N0}
{N0}
{N0}

<L004> occurrences: 187 template:
{N0}N{N1} {N2}N{N3} {N4}
L{N0} L{N1} {N2}
{N0}MP {N1}MP {N2}
{N0}N{N1} {N2}N{N3} {N4}
{N0} {N1} {N2} L{N3} L{N4} {N5}
ST{N0} ST{N1} ({N2}),Y
INY

<L005> occurrences: 138 template:
{N0}
{N0}
{N0}

<L006> occurrences: 114 template:
PL{N0}
ST{N0} ST{N1} {N2}

<L007> occurrences: 114 template:
INY
L{N0} L{N1} ({N2}),Y
ST{N0} ST{N1} {N2}

<L008> occurrences: 106 template:
{N0} {N1} {N2} ST{N3} ST{N4} {N5}
INY
L{N0} L{N1} ({N2}),Y

<L009> occurrences: 104 template:
IN{N0} IN{N1} {N2}

<L010> occurrences: 80 template:
{N0}
{N0}
{N0}
{N0}
{N0}
{N0}

<L011> occurrences: 64 template:
{N0}N{N1} {N2}N{N3} {N4}
{N0} {N1} {N2} ST{N3} ST{N4} {N5}

<L012> occurrences: 64 template:
ROL {N0}

<L013> occurrences: 64 template:
{N0} {N1} {N2} ST{N3} ST{N4} {N5},Y

<L014> occurrences: 52 template:
LSR LSR {N0}

<L015> occurrences: 51 template:
{N0} {N1} {N2} ROR ROR {N3},X
INX
{N0}Y
{N0}N{N1} {N2}N{N3} {N4}

<L016> occurrences: 50 template:
{N0} {N1} {N2} L{N3} L{N4} {N5},X
{N0}Q {N1}Q {N2}
{N0}
{N0}PL {N1}PL {N2}

<L017> occurrences: 50 template:
{N0}N{N1} {N2}N{N3} {N4}

<L018> occurrences: 46 template:
{N0}
{N0}
{N0}
{N0}

<L019> occurrences: 42 template:
ROL ROL {N0}

<L020> occurrences: 40 template:
ST{N0} ST{N1} ({N2}),Y
INY
{N0}N{N1} {N2}N{N3} {N4}
L{N0} L{N1} {N2}
{N0}MP {N1}MP {N2}
{N0}N{N1} {N2}N{N3} {N4}
{N0} {N1} {N2} L{N3} L{N4} {N5}

<L021> occurrences: 37 template:
L{N0} L{N1} {N2}
{N0}MP {N1}MP {N2}
{N0}N{N1} {N2}N{N3} {N4}
{N0}PY {N1}PY {N2}
{N0} {N1}
{N0} {N1} {N2} L{N3} L{N4} {N5}
ST{N0} ST{N1} ({N2}),Y
INY
{N0}N{N1} {N2}N{N3} {N4}

<L022> occurrences: 34 template:
{N0} {N1} {N2} ST{N3} ST{N4} {N5},X

<L023> occurrences: 34 template:
{N0} {N1} {N2} L{N3} L{N4} {N5}
{N0} {N1} {N2} ST{N3} ST{N4} {N5}

<L024> occurrences: 34 template:
LSR {N0}

<L025> occurrences: 32 template:
{N0} {N1} {N2} ST{N3} ST{N4} {N5}
{N0}Y
{N0} {N1}
{N0} {N1} {N2} ST{N3} ST{N4} {N5}
{N0}Y
{N0} {N1}

<L026> occurrences: 30 template:
{N0}
{N0}
{N0}
{N0}
{N0}

<L027> occurrences: 27 template:
{N0} {N1} {N2} ST{N3} ST{N4} {N5}

<L028> occurrences: 25 template:
INX

<L029> occurrences: 24 template:
{N0}MP {N1}MP {N2}
{N0}Q {N1}Q {N2}
{N0}MP {N1}MP {N2}
{N0}Q {N1}Q {N2}

<L030> occurrences: 24 template:
{N0} {N1} {N2} L{N3} L{N4} {N5},X
{N0} {N1} {N2} ST{N3} ST{N4} {N5},Y

<L031> occurrences: 22 template:
{N0}
{N0}
{N0}
{N0}
{N0}
{N0}
{N0}
{N0}

<L032> occurrences: 22 template:
{N0}
{N0}
{N0}
{N0}
{N0}
{N0}
{N0}
{N0}
{N0}
{N0}
{N0}

<L033> occurrences: 22 template:
{N0}
{N0}
{N0}
INX
{N0}PX {N1}PX {N2}
{N0}Q {N1}Q {N2}
{N0}
{N0}
{N0}N{N1} {N2}N{N3} {N4}
{N0}
{N0}
{N0}

<L034> occurrences: 20 template:
{N0}N{N1} {N2}N{N3} {N4}
{N0} {N1} {N2} L{N3} L{N4} {N5},X
{N0} {N1}
{N0}Q {N1}Q {N2}
{N0} {N1} {N2} ST{N3} ST{N4} {N5},Y
INX
INY

<L035> occurrences: 18 template:
STX STX {N0}
[R{N0}p{N1}t{N2} {N3}lo{N4}k ({N5} instrs)] ×{N6}
{N0}PX {N1}PX {N2}
{N0}N{N1} {N2}N{N3} {N4}
{N0}
{N0}
{N0}
{N0}N{N1} {N2}N{N3} {N4}
{N0}
{N0} {N1}

<L036> occurrences: 16 template:
{N0} {N1} {N2} ST{N3} ST{N4} {N5},Y
L{N0} L{N1} {N2}

<L037> occurrences: 15 template:
{N0} {N1} {N2} L{N3} L{N4} {N5},X
{N0} {N1}
{N0}Q {N1}Q {N2}
{N0} {N1} {N2} ST{N3} ST{N4} {N5},Y
INX
INY
{N0}N{N1} {N2}N{N3} {N4}

<L038> occurrences: 14 template:
INY

<L039> occurrences: 14 template:
{N0}
{N0}
{N0}
{N0}
{N0}
{N0}
{N0}
{N0}
{N0}

<L040> occurrences: 12 template:
{N0} {N1} {N2} ST{N3} ST{N4} {N5}
{N0}Y
{N0} {N1}

<L041> occurrences: 12 template:
{N0}SL {N1}

<L042> occurrences: 12 template:
{N0}N{N1} {N2}N{N3} {N4}
{N0}MP {N1}MP {N2}

<L043> occurrences: 12 template:
{N0}MP {N1}MP {N2}
{N0}N{N1} {N2}N{N3} {N4}

<L044> occurrences: 12 template:
{N0}
{N0}
{N0}
{N0}
{N0}
{N0}
{N0}

<L045> occurrences: 11 template:
{N0}
{N0}PL {N1}PL {N2}
{N0}
{N0}MP {N1}MP {N2}
{N0} {N1} {N2}
{N0} {N1} {N2} L{N3}Y L{N4}Y {N5}
{N0}L{N1}
{N0}
{N0}
{N0} {N1} {N2} ST{N3} ST{N4} {N5},X

<L046> occurrences: 9 template:
L{N0} L{N1} {N2}
{N0} {N1} {N2} ST{N3} ST{N4} {N5}

<L047> occurrences: 9 template:
{N0} {N1} {N2} IN{N3} IN{N4} {N5}

<L048> occurrences: 8 template:
INY
INY

<L049> occurrences: 8 template:
{N0} {N1} {N2} L{N3} L{N4} {N5},Y
{N0} {N1} {N2} ST{N3} ST{N4} {N5},X
INY
INX
{N0} {N1} {N2}
{N0}PL {N1}PL {N2}
{N0} {N1} {N2} L{N3} L{N4} {N5},Y
{N0} {N1} {N2} ST{N3} ST{N4} {N5},X
INY
INX
{N0} {N1} {N2}
{N0}PL {N1}PL {N2}

<L050> occurrences: 7 template:
{N0}N{N1} {N2}N{N3} {N4}
L{N0} L{N1} {N2}
{N0}MP {N1}MP {N2}
{N0}N{N1} {N2}N{N3} {N4}
{N0}PY {N1}PY {N2}
{N0} {N1}
{N0} {N1} {N2} L{N3} L{N4} {N5}
ST{N0} ST{N1} ({N2}),Y
INY

<L051> occurrences: 7 template:
{N0}
{N0}PL {N1}PL {N2}
{N0}
{N0}MP {N1}MP {N2}
{N0} {N1} {N2}
{N0} {N1} {N2} L{N3}Y L{N4}Y {N5}
{N0}L{N1}
{N0}
{N0}
{N0}
{N0} {N1} {N2}
{N0} {N1} {N2} ST{N3} ST{N4} {N5},X

<L052> occurrences: 6 template:
{N0} {N1} {N2} L{N3} L{N4} {N5}

<L053> occurrences: 6 template:
{N0} {N1} {N2} ST{N3} ST{N4} {N5},X
L{N0} L{N1} {N2}
{N0} {N1} {N2} ST{N3} ST{N4} {N5},X
L{N0} L{N1} {N2}

<L054> occurrences: 6 template:
{N0} {N1} {N2} ST{N3} ST{N4} {N5},X
{N0} {N1} {N2} L{N3} L{N4} {N5},Y

<L055> occurrences: 6 template:
{N0}MP {N1}MP {N2}
{N0} {N1} {N2}
{N0} {N1} {N2} L{N3}Y L{N4}Y {N5}
{N0}L{N1}
{N0}
{N0}
{N0} {N1} {N2} ST{N3} ST{N4} {N5},X
{N0}
{N0}PL {N1}PL {N2}
{N0}

<L056> occurrences: 5 template:
{N0}
{N0}
{N0}
{N0}PL {N1}PL {N2}
{N0}
{N0}
{N0}
{N0}PL {N1}PL {N2}
{N0}
{N0}
{N0}
{N0}PL {N1}PL {N2}

<L057> occurrences: 4 template:
{N0} {N1} {N2} ST{N3} ST{N4} {N5},X
{N0}
{N0} {N1}
{N0} {N1} {N2} ST{N3} ST{N4} {N5},X
{N0}
{N0} {N1}

<L058> occurrences: 4 template:
{N0} {N1} {N2} L{N3} L{N4} {N5}
{N0}N{N1} {N2}N{N3} {N4}

<L059> occurrences: 4 template:
{N0}Y
{N0} {N1}
{N0}Y
{N0} {N1}

<L060> occurrences: 4 template:
{N0} {N1} {N2} JSR JSR {N3}

<L061> occurrences: 3 template:
{N0} {N1} {N2} {N3} {N4} {N5}

<L062> occurrences: 3 template:
L{N0} L{N1} {N2}
{N0} {N1} {N2} ST{N3} ST{N4} {N5},X

<L063> occurrences: 2 template:
{N0} {N1}
{N0} {N1}

<L064> occurrences: 2 template:
{N0} {N1} {N2} L{N3} L{N4} {N5},X
{N0}MP {N1}MP {N2}
{N0}S {N1}S {N2}
{N0}
{N0}PL {N1}PL {N2}

<L065> occurrences: 2 template:
{N0} {N1} {N2} ST{N3} ST{N4} {N5}
{N0} {N1} {N2} ST{N3} ST{N4} {N5}
L{N0} L{N1} {N2}

<L066> occurrences: 2 template:
{N0} {N1} {N2} L{N3} L{N4} {N5},Y
ST{N0} ST{N1} {N2}

<L067> occurrences: 2 template:
{N0} {N1} {N2} L{N3} L{N4} {N5}
PH{N0}

<L068> occurrences: 2 template:
PL{N0}
{N0} {N1} {N2} ST{N3} ST{N4} {N5}

<L069> occurrences: 2 template:
{N0} {N1} {N2} L{N3}Y L{N4}Y {N5}
INY
TY{N0}
{N0} {N1} {N2} ST{N3} ST{N4} {N5},X
L{N0} L{N1} {N2}
{N0} {N1} {N2} ST{N3} ST{N4} {N5},X

<L070> occurrences: 2 template:
{N0} {N1} {N2} L{N3} L{N4} {N5},X
{N0} {N1} {N2} ST{N3} ST{N4} {N5},Y
INX
INY
{N0}PY {N1}PY {N2}
{N0}Q {N1}Q {N2}
{N0} {N1} {N2}
{N0}N{N1} {N2}N{N3} {N4}

<L071> occurrences: 2 template:
RTS

<L072> occurrences: 2 template:
{N0} {N1} {N2} ST{N3} ST{N4} {N5},X
{N0} {N1} {N2} ST{N3} ST{N4} {N5},X
{N0}
{N0}N{N1} {N2}N{N3} {N4}

<L073> occurrences: 2 template:
{N0}PL {N1}PL {N2}
{N0} {N1} {N2} L{N3} L{N4} {N5},Y
{N0} {N1} {N2} ST{N3} ST{N4} {N5},Y
{N0}Y
{N0}PL {N1}PL {N2}
{N0} {N1} {N2} L{N3} L{N4} {N5},Y
{N0} {N1} {N2} ST{N3} ST{N4} {N5},Y
{N0}Y
{N0}PL {N1}PL {N2}
{N0} {N1} {N2} L{N3} L{N4} {N5},Y
{N0} {N1} {N2} ST{N3} ST{N4} {N5},Y
{N0}Y

<L074> occurrences: 2 template:
L{N0} L{N1} {N2}
{N0} {N1} {N2} ST{N3} ST{N4} {N5}
{N0} {N1} {N2} ST{N3} ST{N4} {N5}

<L075> occurrences: 2 template:
{N0} {N1} {N2} ST{N3} ST{N4} {N5},Y
INY
{N0} {N1}
{N0} {N1} {N2} ST{N3} ST{N4} {N5},Y
INY
{N0} {N1}

<L076> occurrences: 2 template:
{N0} {N1} {N2} L{N3} L{N4} {N5},Y
{N0} {N1} {N2} ST{N3} ST{N4} {N5},Y
{N0}
{N0}
{N0} {N1} {N2} L{N3} L{N4} {N5},Y
{N0} {N1} {N2} ST{N3} ST{N4} {N5},Y
{N0}
{N0}

<L077> occurrences: 2 template:
{N0}MP {N1}MP {N2}
{N0} {N1} {N2}
{N0} {N1} {N2} L{N3}Y L{N4}Y {N5}
{N0}L{N1}
{N0}
{N0}
{N0}
{N0} {N1} {N2}
{N0} {N1} {N2} ST{N3} ST{N4} {N5},X
{N0}
{N0}PL {N1}PL {N2}
{N0}

<L078> occurrences: 2 template:
ST{N0} ST{N1} {N2}

<L079> occurrences: 2 template:
{N0}Q {N1}Q {N2}
{N0} {N1} {N2} L{N3} L{N4} {N5}
{N0}N{N1} {N2}N{N3} {N4}
{N0}Q {N1}Q {N2}
{N0}Q {N1}Q {N2}

<L080> occurrences: 2 template:
L{N0} L{N1} {N2}
ST{N0} ST{N1} {N2}

<L081> occurrences: 2 template:
{N0} {N1} {N2} ST{N3} ST{N4} {N5},X
INX
INY
{N0}PY {N1}PY {N2}
{N0} {N1} {N2}
{N0}

<L082> occurrences: 2 template:
{N0}PY {N1}PY {N2}
{N0} {N1} {N2}
{N0}
{N0} {N1} {N2} ST{N3} ST{N4} {N5},X
INX
INY

